ccollections
defaultdict
p0
(c__builtin__
list
p1
tp2
Rp3
S'greensboro, north '
p4
(lp5
S'greensboro, north carolina'
p6
asS'boston, massachus'
p7
(lp8
S'boston, massachusetts'
p9
asS'bakersfield, cali'
p10
(lp11
S'bakersfield, california'
p12
asS'lexington, kentuck'
p13
(lp14
S'lexington, kentucky'
p15
asS'amrav'
p16
(lp17
S'amravati'
p18
asS'albuquerque, '
p19
(lp20
S'albuquerque, new mexico'
p21
asS'sco'
p22
(lp23
S'scottsdale, arizona'
p24
asS'oklahoma city, oklaho'
p25
(lp26
S'oklahoma city, oklahoma'
p27
asS'portland,'
p28
(lp29
S'portland, oregon'
p30
asS'albuqu'
p31
(lp32
S'albuquerque, new mexico'
p33
asS'san fr'
p34
(lp35
S'san francisco, california'
p36
asS'albuquerqu'
p37
(lp38
S'albuquerque, new mexico'
p39
asS'durham, north caro'
p40
(lp41
S'durham, north carolina'
p42
asS'irvine, ca'
p43
(lp44
S'irvine, california'
p45
asS'wichita, ka'
p46
(lp47
S'wichita, kansas'
p48
asS'aus'
p49
(lp50
S'austin, texas'
p51
asS'aur'
p52
(lp53
S'aurangabad'
p54
aS'aurora, colorado'
p55
asS'hialeah, '
p56
(lp57
S'hialeah, florida'
p58
asS'bika'
p59
(lp60
S'bikaner'
p61
asS'madison, wis'
p62
(lp63
S'madison, wisconsin'
p64
asS'durham, north carolin'
p65
(lp66
S'durham, north carolina'
p67
asS'samb'
p68
(lp69
S'sambalpur'
p70
asS'chicago, il'
p71
(lp72
S'chicago, illinois'
p73
asS'delh'
p74
(lp75
S'delhi'
p76
asS'aurora'
p77
(lp78
S'aurora, colorado'
p79
asS'vasa'
p80
(lp81
S'vasai-virar'
p82
asS'chicago, '
p83
(lp84
S'chicago, illinois'
p85
asS'kirari suleman '
p86
(lp87
S'kirari suleman nagar'
p88
asS'denver,'
p89
(lp90
S'denver, colorado'
p91
asS'jack'
p92
(lp93
S'jacksonville, florida'
p94
asS'bhiwan'
p95
(lp96
S'bhiwandi'
p97
asS'karawal nag'
p98
(lp99
S'karawal nagar'
p100
asS'newar'
p101
(lp102
S'newark, new jersey'
p103
asS'kalyan-dombiva'
p104
(lp105
S'kalyan-dombivali'
p106
asS'ozhuka'
p107
(lp108
S'ozhukarai'
p109
asS'albuquerque, new mexic'
p110
(lp111
S'albuquerque, new mexico'
p112
asS'math'
p113
(lp114
S'mathura'
p115
asS'st. lou'
p116
(lp117
S'st. louis, missouri'
p118
asS'ches'
p119
(lp120
S'chesapeake, virginia'
p121
asS'chula vist'
p122
(lp123
S'chula vista, california'
p124
asS'birmingha'
p125
(lp126
S'birmingham, alabama'
p127
asS'san diego, c'
p128
(lp129
S'san diego, california'
p130
asS'ramagu'
p131
(lp132
S'ramagundam'
p133
asS'chen'
p134
(lp135
S'chennai'
p136
asS'puduc'
p137
(lp138
S'puducherry'
p139
asS'tiruc'
p140
(lp141
S'tiruchirappalli'
p142
asS'nel'
p143
(lp144
S'nellore'
p145
asS'kur'
p146
(lp147
S'kurnool'
p148
asS'kozhik'
p149
(lp150
S'kozhikode'
p151
asS'kul'
p152
(lp153
S'kulti'
p154
asS'tampa, florid'
p155
(lp156
S'tampa, florida'
p157
asS'new'
p158
(lp159
S'new delhi'
p160
aS'new orleans, louisiana'
p161
aS'new york, new york'
p162
aS'newark, new jersey'
p163
asS'bharat'
p164
(lp165
S'bharatpur'
p166
asS'lexington, kentuc'
p167
(lp168
S'lexington, kentucky'
p169
asS'tole'
p170
(lp171
S'toledo, ohio'
p172
asS'chenn'
p173
(lp174
S'chennai'
p175
asS'mee'
p176
(lp177
S'meerut'
p178
asS'agartal'
p179
(lp180
S'agartala'
p181
asS'honolulu cd'
p182
(lp183
S'honolulu cdp, hawaii'
p184
asS'greensboro, north carol'
p185
(lp186
S'greensboro, north carolina'
p187
asS'sambal'
p188
(lp189
S'sambalpur'
p190
asS'baltimore, marylan'
p191
(lp192
S'baltimore, maryland'
p193
asS'mes'
p194
(lp195
S'mesa, arizona'
p196
asS'pati'
p197
(lp198
S'patiala'
p199
asS'bhuba'
p200
(lp201
S'bhubaneswar'
p202
asS'bareill'
p203
(lp204
S'bareilly'
p205
asS'patn'
p206
(lp207
S'patna'
p208
asS'santa ana,'
p209
(lp210
S'santa ana, california'
p211
asS'jams'
p212
(lp213
S'jamshedpur'
p214
asS'k'
p215
(lp216
S'kadapa'
p217
aS'kakinada'
p218
aS'kalyan-dombivali'
p219
aS'kamarhati'
p220
aS'kanpur'
p221
aS'kansas city, missouri'
p222
aS'karawal nagar'
p223
aS'karimnagar'
p224
aS'karnal'
p225
aS'katihar'
p226
aS'khammam'
p227
aS'kirari suleman nagar'
p228
aS'kochi'
p229
aS'kolhapur'
p230
aS'kolkata'
p231
aS'kollam'
p232
aS'korba'
p233
aS'kota'
p234
aS'kozhikode'
p235
aS'kulti'
p236
aS'kurnool'
p237
asS'gle'
p238
(lp239
S'glendale, arizona'
p240
asS'omah'
p241
(lp242
S'omaha, nebraska'
p243
asS'ako'
p244
(lp245
S'akola'
p246
asS'denver, colo'
p247
(lp248
S'denver, colorado'
p249
asS'jamm'
p250
(lp251
S'jammu'
p252
asS'jamn'
p253
(lp254
S'jamnagar'
p255
asS'bhub'
p256
(lp257
S'bhubaneswar'
p258
asS'thiruvananthap'
p259
(lp260
S'thiruvananthapuram'
p261
asS'buffalo, n'
p262
(lp263
S'buffalo, new york'
p264
asS'honolulu cdp, hawa'
p265
(lp266
S'honolulu cdp, hawaii'
p267
asS'jamsh'
p268
(lp269
S'jamshedpur'
p270
asS'long bea'
p271
(lp272
S'long beach, california'
p273
asS'omaha, '
p274
(lp275
S'omaha, nebraska'
p276
asS'morad'
p277
(lp278
S'moradabad'
p279
asS'bhil'
p280
(lp281
S'bhilai'
p282
aS'bhilwara'
p283
asS'newark, new'
p284
(lp285
S'newark, new jersey'
p286
asS'albuquerque, new m'
p287
(lp288
S'albuquerque, new mexico'
p289
asS'thiruvanant'
p290
(lp291
S'thiruvananthapuram'
p292
asS'oaklan'
p293
(lp294
S'oakland, california'
p295
asS'san jose, californi'
p296
(lp297
S'san jose, california'
p298
asS'north las vegas, n'
p299
(lp300
S'north las vegas, nevada'
p301
asS'indiana'
p302
(lp303
S'indianapolis, indiana'
p304
asS'bhiw'
p305
(lp306
S'bhiwandi'
p307
asS'jacksonville, florid'
p308
(lp309
S'jacksonville, florida'
p310
asS'meeru'
p311
(lp312
S'meerut'
p313
asS'kansas ci'
p314
(lp315
S'kansas city, missouri'
p316
asS'el paso, '
p317
(lp318
S'el paso, texas'
p319
asS'th'
p320
(lp321
S'thane'
p322
aS'thiruvananthapuram'
p323
aS'thoothukudi'
p324
aS'thrissur'
p325
asS'arlington,'
p326
(lp327
S'arlington, texas'
p328
asS'las vegas,'
p329
(lp330
S'las vegas, nevada'
p331
asS'pudu'
p332
(lp333
S'puducherry'
p334
asS'aizaw'
p335
(lp336
S'aizawl'
p337
asS'tampa'
p338
(lp339
S'tampa, florida'
p340
asS'wara'
p341
(lp342
S'warangal'
p343
asS'me'
p344
(lp345
S'meerut'
p346
aS'memphis, tennessee'
p347
aS'mesa, arizona'
p348
asS'irvin'
p349
(lp350
S'irvine, california'
p351
aS'irving, texas'
p352
asS'ma'
p353
(lp354
S'madison, wisconsin'
p355
aS'madurai'
p356
aS'maheshtala'
p357
aS'malegaon'
p358
aS'mangalore'
p359
aS'mathura'
p360
aS'mau'
p361
asS'bhubaneswa'
p362
(lp363
S'bhubaneswar'
p364
asS'mo'
p365
(lp366
S'moradabad'
p367
asS'mi'
p368
(lp369
S'miami, florida'
p370
aS'milwaukee, wisconsin'
p371
aS'minneapolis, minnesota'
p372
aS'mira-bhayandar'
p373
aS'mirzapur'
p374
asS'cincinnati, ohi'
p375
(lp376
S'cincinnati, ohio'
p377
asS'mu'
p378
(lp379
S'mumbai'
p380
aS'muzaffarnagar'
p381
aS'muzaffarpur'
p382
asS'san b'
p383
(lp384
S'san bernardino, california'
p385
asS'raleigh,'
p386
(lp387
S'raleigh, north carolina'
p388
asS'san juan, puert'
p389
(lp390
S'san juan, puerto rico'
p391
asS'san f'
p392
(lp393
S'san francisco, california'
p394
asS'san d'
p395
(lp396
S'san diego, california'
p397
asS'san j'
p398
(lp399
S'san jose, california'
p400
aS'san juan, puerto rico'
p401
asS'ero'
p402
(lp403
S'erode'
p404
asS'my'
p405
(lp406
S'mysore'
p407
asS'chandr'
p408
(lp409
S'chandrapur'
p410
asS'gopalp'
p411
(lp412
S'gopalpur'
p413
asS'jersey city,'
p414
(lp415
S'jersey city, new jersey'
p416
asS'south '
p417
(lp418
S'south dumdum'
p419
asS'india'
p420
(lp421
S'indianapolis, indiana'
p422
asS'baton r'
p423
(lp424
S'baton rouge, louisiana'
p425
asS'norfolk, vi'
p426
(lp427
S'norfolk, virginia'
p428
asS'vadod'
p429
(lp430
S'vadodara'
p431
asS'chandi'
p432
(lp433
S'chandigarh'
p434
asS'chandl'
p435
(lp436
S'chandler, arizona'
p437
asS'seattle'
p438
(lp439
S'seattle, washington'
p440
asS'hon'
p441
(lp442
S'honolulu cdp, hawaii'
p443
asS'tampa, flo'
p444
(lp445
S'tampa, florida'
p446
asS'miami, flor'
p447
(lp448
S'miami, florida'
p449
asS'how'
p450
(lp451
S'howrah'
p452
asS'kadap'
p453
(lp454
S'kadapa'
p455
asS'hou'
p456
(lp457
S'houston, texas'
p458
asS'lincoln, nebr'
p459
(lp460
S'lincoln, nebraska'
p461
asS'satn'
p462
(lp463
S'satna'
p464
asS'memphis,'
p465
(lp466
S'memphis, tennessee'
p467
asS'ajme'
p468
(lp469
S'ajmer'
p470
asS'ulha'
p471
(lp472
S'ulhasnagar'
p473
asS'rajpur sona'
p474
(lp475
S'rajpur sonarpur'
p476
asS'pimpr'
p477
(lp478
S'pimpri-chinchwad'
p479
asS'new delh'
p480
(lp481
S'new delhi'
p482
asS'lat'
p483
(lp484
S'latur'
p485
asS'ahmedab'
p486
(lp487
S'ahmedabad'
p488
asS'mesa'
p489
(lp490
S'mesa, arizona'
p491
asS'adil'
p492
(lp493
S'adilabad'
p494
asS'lar'
p495
(lp496
S'laredo, texas'
p497
asS'las'
p498
(lp499
S'las vegas, nevada'
p500
asS'anaheim, califor'
p501
(lp502
S'anaheim, california'
p503
asS'raleigh, north carolin'
p504
(lp505
S'raleigh, north carolina'
p506
asS'hubball'
p507
(lp508
S'hubballi-dharwad'
p509
asS'oakland, califo'
p510
(lp511
S'oakland, california'
p512
asS'green'
p513
(lp514
S'greensboro, north carolina'
p515
asS'san francisco, cal'
p516
(lp517
S'san francisco, california'
p518
asS'jackso'
p519
(lp520
S'jacksonville, florida'
p521
asS'baltimore, ma'
p522
(lp523
S'baltimore, maryland'
p524
asS'greensboro,'
p525
(lp526
S'greensboro, north carolina'
p527
asS'greensboro, '
p528
(lp529
S'greensboro, north carolina'
p530
asS'lubbock, t'
p531
(lp532
S'lubbock, texas'
p533
asS'columbus, ohi'
p534
(lp535
S'columbus, ohio'
p536
asS'new orleans, lo'
p537
(lp538
S'new orleans, louisiana'
p539
asS'mangalor'
p540
(lp541
S'mangalore'
p542
asS'vara'
p543
(lp544
S'varanasi'
p545
asS'jaba'
p546
(lp547
S'jabalpur'
p548
asS'darbha'
p549
(lp550
S'darbhanga'
p551
asS'st. louis, missour'
p552
(lp553
S'st. louis, missouri'
p554
asS'mumba'
p555
(lp556
S'mumbai'
p557
asS'corpus christi, '
p558
(lp559
S'corpus christi, texas'
p560
asS'denver, colora'
p561
(lp562
S'denver, colorado'
p563
asS'cle'
p564
(lp565
S'cleveland, ohio'
p566
asS'vadodar'
p567
(lp568
S'vadodara'
p569
asS'san ju'
p570
(lp571
S'san juan, puerto rico'
p572
asS'sambalp'
p573
(lp574
S'sambalpur'
p575
asS'denver'
p576
(lp577
S'denver, colorado'
p578
asS'imp'
p579
(lp580
S'imphal'
p581
asS'new orleans'
p582
(lp583
S'new orleans, louisiana'
p584
asS'santa ana, califo'
p585
(lp586
S'santa ana, california'
p587
asS'henderson, ne'
p588
(lp589
S'henderson, nevada'
p590
asS'oklahoma c'
p591
(lp592
S'oklahoma city, oklahoma'
p593
asS'jacksonvi'
p594
(lp595
S'jacksonville, florida'
p596
asS'khamm'
p597
(lp598
S'khammam'
p599
asS'san juan, puerto'
p600
(lp601
S'san juan, puerto rico'
p602
asS'mira-b'
p603
(lp604
S'mira-bhayandar'
p605
asS'pittsburgh, pennsyl'
p606
(lp607
S'pittsburgh, pennsylvania'
p608
asS'colorado '
p609
(lp610
S'colorado springs, colorado'
p611
asS'shivam'
p612
(lp613
S'shivamogga'
p614
asS'bang'
p615
(lp616
S'bangalore'
p617
asS'dallas, te'
p618
(lp619
S'dallas, texas'
p620
asS'norfolk'
p621
(lp622
S'norfolk, virginia'
p623
asS'moradab'
p624
(lp625
S'moradabad'
p626
asS'san bernardino, californ'
p627
(lp628
S'san bernardino, california'
p629
asS'hialeah, florid'
p630
(lp631
S'hialeah, florida'
p632
asS'l'
p633
(lp634
S'laredo, texas'
p635
aS'las vegas, nevada'
p636
aS'latur'
p637
aS'lexington, kentucky'
p638
aS'lincoln, nebraska'
p639
aS'long beach, california'
p640
aS'loni'
p641
aS'los angeles, california'
p642
aS'louisville, kentucky'
p643
aS'lubbock, texas'
p644
aS'lucknow'
p645
aS'ludhiana'
p646
asS'detroit'
p647
(lp648
S'detroit, michigan'
p649
asS'shivamog'
p650
(lp651
S'shivamogga'
p652
asS'washington, district of colum'
p653
(lp654
S'washington, district of columbia'
p655
asS'garland, te'
p656
(lp657
S'garland, texas'
p658
asS'sangli-miraj'
p659
(lp660
S'sangli-miraj & kupwad'
p661
asS'memphis, t'
p662
(lp663
S'memphis, tennessee'
p664
asS'long beach, ca'
p665
(lp666
S'long beach, california'
p667
asS'gurgao'
p668
(lp669
S'gurgaon'
p670
asS'jersey city, new j'
p671
(lp672
S'jersey city, new jersey'
p673
asS'akol'
p674
(lp675
S'akola'
p676
asS'navi'
p677
(lp678
S'navi mumbai'
p679
asS'allah'
p680
(lp681
S'allahabad'
p682
asS'sahar'
p683
(lp684
S'saharanpur'
p685
asS'hubballi-'
p686
(lp687
S'hubballi-dharwad'
p688
asS'aurora, colora'
p689
(lp690
S'aurora, colorado'
p691
asS'laredo, t'
p692
(lp693
S'laredo, texas'
p694
asS'scottsdale, ariz'
p695
(lp696
S'scottsdale, arizona'
p697
asS'oakland, californi'
p698
(lp699
S'oakland, california'
p700
asS'miami, fl'
p701
(lp702
S'miami, florida'
p703
asS'vado'
p704
(lp705
S'vadodara'
p706
asS'jalg'
p707
(lp708
S'jalgaon'
p709
asS'chula vista, californ'
p710
(lp711
S'chula vista, california'
p712
asS'ajm'
p713
(lp714
S'ajmer'
p715
asS'jala'
p716
(lp717
S'jalandhar'
p718
asS'sacramento'
p719
(lp720
S'sacramento, california'
p721
asS'bakersfield, califor'
p722
(lp723
S'bakersfield, california'
p724
asS'ro'
p725
(lp726
S'rohtak'
p727
aS'rourkela'
p728
aS'rourkela'
p729
asS'reno, nev'
p730
(lp731
S'reno, nevada'
p732
asS'gop'
p733
(lp734
S'gopalpur'
p735
asS'gor'
p736
(lp737
S'gorakhpur'
p738
asS'long beach, californi'
p739
(lp740
S'long beach, california'
p741
asS'anchorage, alask'
p742
(lp743
S'anchorage, alaska'
p744
asS'greensboro, nort'
p745
(lp746
S'greensboro, north carolina'
p747
asS'tulsa, oklah'
p748
(lp749
S'tulsa, oklahoma'
p750
asS'frem'
p751
(lp752
S'fremont, california'
p753
asS'howra'
p754
(lp755
S'howrah'
p756
asS'new yo'
p757
(lp758
S'new york, new york'
p759
asS'fres'
p760
(lp761
S'fresno, california'
p762
asS'buffal'
p763
(lp764
S'buffalo, new york'
p765
asS'raip'
p766
(lp767
S'raipur'
p768
asS'saha'
p769
(lp770
S'saharanpur'
p771
asS'gwali'
p772
(lp773
S'gwalior'
p774
asS'atl'
p775
(lp776
S'atlanta, georgia'
p777
asS'saint paul, mi'
p778
(lp779
S'saint paul, minnesota'
p780
asS'bija'
p781
(lp782
S'bijapur'
p783
asS'loui'
p784
(lp785
S'louisville, kentucky'
p786
asS'fort '
p787
(lp788
S'fort wayne, indiana'
p789
aS'fort worth, texas'
p790
asS'baltim'
p791
(lp792
S'baltimore, maryland'
p793
asS'omaha, nebr'
p794
(lp795
S'omaha, nebraska'
p796
asS'vijayana'
p797
(lp798
S'vijayanagaram'
p799
asS'pittsburgh, pennsylvani'
p800
(lp801
S'pittsburgh, pennsylvania'
p802
asS'vijay'
p803
(lp804
S'vijayanagaram'
p805
aS'vijayawada'
p806
asS'ranc'
p807
(lp808
S'ranchi'
p809
asS'sri gan'
p810
(lp811
S'sri ganganagar'
p812
asS'nashv'
p813
(lp814
S'nashville, tennessee'
p815
asS'anahei'
p816
(lp817
S'anaheim, california'
p818
asS'louisville,'
p819
(lp820
S'louisville, kentucky'
p821
asS'wash'
p822
(lp823
S'washington, district of columbia'
p824
asS'los ang'
p825
(lp826
S'los angeles, california'
p827
asS'anaheim, califo'
p828
(lp829
S'anaheim, california'
p830
asS'lubbock, texa'
p831
(lp832
S'lubbock, texas'
p833
asS'town of gilbert'
p834
(lp835
S'town of gilbert, arizona'
p836
asS'saint p'
p837
(lp838
S'saint paul, minnesota'
p839
aS'saint petersburg, florida'
p840
asS'milwa'
p841
(lp842
S'milwaukee, wisconsin'
p843
asS'tow'
p844
(lp845
S'town of gilbert, arizona'
p846
asS'aurora, colo'
p847
(lp848
S'aurora, colorado'
p849
asS'coimbator'
p850
(lp851
S'coimbatore'
p852
asS'stock'
p853
(lp854
S'stockton, california'
p855
asS'tol'
p856
(lp857
S'toledo, ohio'
p858
asS'colorado spr'
p859
(lp860
S'colorado springs, colorado'
p861
asS'corpus'
p862
(lp863
S'corpus christi, texas'
p864
asS'greensboro, north'
p865
(lp866
S'greensboro, north carolina'
p867
asS'austin,'
p868
(lp869
S'austin, texas'
p870
asS'gurga'
p871
(lp872
S'gurgaon'
p873
asS'saint petersburg, fl'
p874
(lp875
S'saint petersburg, florida'
p876
asS'honolulu'
p877
(lp878
S'honolulu cdp, hawaii'
p879
asS'hialeah'
p880
(lp881
S'hialeah, florida'
p882
asS'norfol'
p883
(lp884
S'norfolk, virginia'
p885
asS'oakland, calif'
p886
(lp887
S'oakland, california'
p888
asS'ahmed'
p889
(lp890
S'ahmedabad'
p891
aS'ahmednagar'
p892
asS'vijayawad'
p893
(lp894
S'vijayawada'
p895
asS'town of gilbe'
p896
(lp897
S'town of gilbert, arizona'
p898
asS'winston\xe2\x80\x93'
p899
(lp900
S'winston\xe2\x80\x93salem, north carolina'
p901
asS'long beach, califo'
p902
(lp903
S'long beach, california'
p904
asS'phoenix, ari'
p905
(lp906
S'phoenix, arizona'
p907
asS'new or'
p908
(lp909
S'new orleans, louisiana'
p910
asS'chula vi'
p911
(lp912
S'chula vista, california'
p913
asS'minn'
p914
(lp915
S'minneapolis, minnesota'
p916
asS'ran'
p917
(lp918
S'ranchi'
p919
asS'boston'
p920
(lp921
S'boston, massachusetts'
p922
asS'ral'
p923
(lp924
S'raleigh, north carolina'
p925
asS'ram'
p926
(lp927
S'ramagundam'
p928
aS'rampur'
p929
asS'birmingham, alab'
p930
(lp931
S'birmingham, alabama'
p932
asS'anahe'
p933
(lp934
S'anaheim, california'
p935
asS'rai'
p936
(lp937
S'raichur'
p938
aS'raipur'
p939
asS'rat'
p940
(lp941
S'ratlam'
p942
asS'saint paul, '
p943
(lp944
S'saint paul, minnesota'
p945
asS'washington, district o'
p946
(lp947
S'washington, district of columbia'
p948
asS'bhara'
p949
(lp950
S'bharatpur'
p951
asS'bardh'
p952
(lp953
S'bardhaman'
p954
asS'anchorag'
p955
(lp956
S'anchorage, alaska'
p957
asS'chesa'
p958
(lp959
S'chesapeake, virginia'
p960
asS'shahjahanp'
p961
(lp962
S'shahjahanpur'
p963
asS'tiruchira'
p964
(lp965
S'tiruchirappalli'
p966
asS'san diego'
p967
(lp968
S'san diego, california'
p969
asS'winston\xe2\x80\x93salem, nor'
p970
(lp971
S'winston\xe2\x80\x93salem, north carolina'
p972
asS'north las'
p973
(lp974
S'north las vegas, nevada'
p975
asS'fort worth, texa'
p976
(lp977
S'fort worth, texas'
p978
asS'south dum'
p979
(lp980
S'south dumdum'
p981
asS'albuque'
p982
(lp983
S'albuquerque, new mexico'
p984
asS'hialeah,'
p985
(lp986
S'hialeah, florida'
p987
asS'lexin'
p988
(lp989
S'lexington, kentucky'
p990
asS'saint paul, m'
p991
(lp992
S'saint paul, minnesota'
p993
asS'tiruvottiy'
p994
(lp995
S'tiruvottiyur'
p996
asS'norfolk, virgini'
p997
(lp998
S'norfolk, virginia'
p999
asS'coim'
p1000
(lp1001
S'coimbatore'
p1002
asS'austi'
p1003
(lp1004
S'austin, texas'
p1005
asS'long '
p1006
(lp1007
S'long beach, california'
p1008
asS'new orl'
p1009
(lp1010
S'new orleans, louisiana'
p1011
asS'thiruvan'
p1012
(lp1013
S'thiruvananthapuram'
p1014
asS'raleigh, no'
p1015
(lp1016
S'raleigh, north carolina'
p1017
asS'm'
p1018
(lp1019
S'madison, wisconsin'
p1020
aS'madurai'
p1021
aS'maheshtala'
p1022
aS'malegaon'
p1023
aS'mangalore'
p1024
aS'mathura'
p1025
aS'mau'
p1026
aS'meerut'
p1027
aS'memphis, tennessee'
p1028
aS'mesa, arizona'
p1029
aS'miami, florida'
p1030
aS'milwaukee, wisconsin'
p1031
aS'minneapolis, minnesota'
p1032
aS'mira-bhayandar'
p1033
aS'mirzapur'
p1034
aS'moradabad'
p1035
aS'mumbai'
p1036
aS'muzaffarnagar'
p1037
aS'muzaffarpur'
p1038
aS'mysore'
p1039
asS'amaravat'
p1040
(lp1041
S'amaravati'
p1042
asS'jerse'
p1043
(lp1044
S'jersey city, new jersey'
p1045
asS'arli'
p1046
(lp1047
S'arlington, texas'
p1048
asS'davanage'
p1049
(lp1050
S'davanagere'
p1051
asS'virginia beach, v'
p1052
(lp1053
S'virginia beach, virginia'
p1054
asS'colora'
p1055
(lp1056
S'colorado springs, colorado'
p1057
asS'winston\xe2\x80\x93salem, north carol'
p1058
(lp1059
S'winston\xe2\x80\x93salem, north carolina'
p1060
asS'sacramento, c'
p1061
(lp1062
S'sacramento, california'
p1063
asS'town of gi'
p1064
(lp1065
S'town of gilbert, arizona'
p1066
asS'saga'
p1067
(lp1068
S'sagar'
p1069
asS'ichalkara'
p1070
(lp1071
S'ichalkaranji'
p1072
asS'nand'
p1073
(lp1074
S'nanded'
p1075
asS'atlanta, geor'
p1076
(lp1077
S'atlanta, georgia'
p1078
asS'kalyan-do'
p1079
(lp1080
S'kalyan-dombivali'
p1081
asS'bardhama'
p1082
(lp1083
S'bardhaman'
p1084
asS'pimpri-ch'
p1085
(lp1086
S'pimpri-chinchwad'
p1087
asS'greensbo'
p1088
(lp1089
S'greensboro, north carolina'
p1090
asS'orlando,'
p1091
(lp1092
S'orlando, florida'
p1093
asS'charlott'
p1094
(lp1095
S'charlotte, north carolina'
p1096
asS'north las ve'
p1097
(lp1098
S'north las vegas, nevada'
p1099
asS'kirari sulem'
p1100
(lp1101
S'kirari suleman nagar'
p1102
asS'rajpur sonarp'
p1103
(lp1104
S'rajpur sonarpur'
p1105
asS'louisv'
p1106
(lp1107
S'louisville, kentucky'
p1108
asS'lubb'
p1109
(lp1110
S'lubbock, texas'
p1111
asS'los angeles, '
p1112
(lp1113
S'los angeles, california'
p1114
asS'karimnag'
p1115
(lp1116
S'karimnagar'
p1117
asS'sur'
p1118
(lp1119
S'surat'
p1120
asS'bhavnag'
p1121
(lp1122
S'bhavnagar'
p1123
asS'dh'
p1124
(lp1125
S'dhanbad'
p1126
aS'dhule'
p1127
asS'oakla'
p1128
(lp1129
S'oakland, california'
p1130
asS'de'
p1131
(lp1132
S'dehradun'
p1133
aS'delhi'
p1134
aS'denver, colorado'
p1135
aS'detroit, michigan'
p1136
aS'dewas'
p1137
asS'kaki'
p1138
(lp1139
S'kakinada'
p1140
asS'siligur'
p1141
(lp1142
S'siliguri'
p1143
asS'da'
p1144
(lp1145
S'dallas, texas'
p1146
aS'darbhanga'
p1147
aS'davanagere'
p1148
asS'raleigh, north c'
p1149
(lp1150
S'raleigh, north carolina'
p1151
asS'fort worth,'
p1152
(lp1153
S'fort worth, texas'
p1154
asS'phoeni'
p1155
(lp1156
S'phoenix, arizona'
p1157
asS'du'
p1158
(lp1159
S'durg'
p1160
aS'durgapur'
p1161
aS'durham, north carolina'
p1162
asS'bakersfield, cal'
p1163
(lp1164
S'bakersfield, california'
p1165
asS'stoc'
p1166
(lp1167
S'stockton, california'
p1168
asS'st. louis'
p1169
(lp1170
S'st. louis, missouri'
p1171
asS'bat'
p1172
(lp1173
S'bathinda'
p1174
aS'baton rouge, louisiana'
p1175
asS'bar'
p1176
(lp1177
S'baranagar'
p1178
aS'barasat'
p1179
aS'bardhaman'
p1180
aS'bareilly'
p1181
asS'irvine, c'
p1182
(lp1183
S'irvine, california'
p1184
asS'greens'
p1185
(lp1186
S'greensboro, north carolina'
p1187
asS'chesapeake'
p1188
(lp1189
S'chesapeake, virginia'
p1190
asS'lexington'
p1191
(lp1192
S'lexington, kentucky'
p1193
asS'kolka'
p1194
(lp1195
S'kolkata'
p1196
asS'ban'
p1197
(lp1198
S'bangalore'
p1199
asS'bal'
p1200
(lp1201
S'bally'
p1202
aS'baltimore, maryland'
p1203
asS'bak'
p1204
(lp1205
S'bakersfield, california'
p1206
asS'colorado sprin'
p1207
(lp1208
S'colorado springs, colorado'
p1209
asS'chicag'
p1210
(lp1211
S'chicago, illinois'
p1212
asS'amritsa'
p1213
(lp1214
S'amritsar'
p1215
asS'fresno, ca'
p1216
(lp1217
S'fresno, california'
p1218
asS'new orleans,'
p1219
(lp1220
S'new orleans, louisiana'
p1221
asS'new '
p1222
(lp1223
S'new delhi'
p1224
aS'new orleans, louisiana'
p1225
aS'new york, new york'
p1226
asS'clev'
p1227
(lp1228
S'cleveland, ohio'
p1229
asS'indianapolis, '
p1230
(lp1231
S'indianapolis, indiana'
p1232
asS'jamshed'
p1233
(lp1234
S'jamshedpur'
p1235
asS'gorakh'
p1236
(lp1237
S'gorakhpur'
p1238
asS'denver, colorad'
p1239
(lp1240
S'denver, colorado'
p1241
asS'el paso, texa'
p1242
(lp1243
S'el paso, texas'
p1244
asS'santa ana'
p1245
(lp1246
S'santa ana, california'
p1247
asS'new orleans, lou'
p1248
(lp1249
S'new orleans, louisiana'
p1250
asS'stockton, cal'
p1251
(lp1252
S'stockton, california'
p1253
asS'sain'
p1254
(lp1255
S'saint paul, minnesota'
p1256
aS'saint petersburg, florida'
p1257
asS'dhanba'
p1258
(lp1259
S'dhanbad'
p1260
asS'junaga'
p1261
(lp1262
S'junagadh'
p1263
asS'muz'
p1264
(lp1265
S'muzaffarnagar'
p1266
aS'muzaffarpur'
p1267
asS'mem'
p1268
(lp1269
S'memphis, tennessee'
p1270
asS'r'
p1271
(lp1272
S'raichur'
p1273
aS'raipur'
p1274
aS'rajahmundry'
p1275
aS'rajkot'
p1276
aS'rajpur sonarpur'
p1277
aS'raleigh, north carolina'
p1278
aS'ramagundam'
p1279
aS'rampur'
p1280
aS'ranchi'
p1281
aS'ratlam'
p1282
aS'reno, nevada'
p1283
aS'rewa'
p1284
aS'riverside, california'
p1285
aS'rohtak'
p1286
aS'rourkela'
p1287
aS'rourkela'
p1288
asS'tiruchir'
p1289
(lp1290
S'tiruchirappalli'
p1291
asS'mum'
p1292
(lp1293
S'mumbai'
p1294
asS'fort wayne, '
p1295
(lp1296
S'fort wayne, indiana'
p1297
asS'plano,'
p1298
(lp1299
S'plano, texas'
p1300
asS'philadelphia, pennsylv'
p1301
(lp1302
S'philadelphia, pennsylvania'
p1303
asS'oma'
p1304
(lp1305
S'omaha, nebraska'
p1306
asS'ancho'
p1307
(lp1308
S'anchorage, alaska'
p1309
asS'bost'
p1310
(lp1311
S'boston, massachusetts'
p1312
asS'chenna'
p1313
(lp1314
S'chennai'
p1315
asS'auror'
p1316
(lp1317
S'aurora, colorado'
p1318
asS'jalandh'
p1319
(lp1320
S'jalandhar'
p1321
asS'wi'
p1322
(lp1323
S'wichita, kansas'
p1324
aS'winston\xe2\x80\x93salem, north carolina'
p1325
asS'jersey '
p1326
(lp1327
S'jersey city, new jersey'
p1328
asS'sri gang'
p1329
(lp1330
S'sri ganganagar'
p1331
asS'cut'
p1332
(lp1333
S'cuttack'
p1334
asS'belgau'
p1335
(lp1336
S'belgaum'
p1337
asS'austin, t'
p1338
(lp1339
S'austin, texas'
p1340
asS'lincoln, neb'
p1341
(lp1342
S'lincoln, nebraska'
p1343
asS'amravat'
p1344
(lp1345
S'amravati'
p1346
asS'cor'
p1347
(lp1348
S'corpus christi, texas'
p1349
asS'virginia '
p1350
(lp1351
S'virginia beach, virginia'
p1352
asS'pitt'
p1353
(lp1354
S'pittsburgh, pennsylvania'
p1355
asS'las vegas'
p1356
(lp1357
S'las vegas, nevada'
p1358
asS'coi'
p1359
(lp1360
S'coimbatore'
p1361
asS'north dumd'
p1362
(lp1363
S'north dumdum'
p1364
asS'col'
p1365
(lp1366
S'colorado springs, colorado'
p1367
aS'columbus, ohio'
p1368
asS'san bernardino, c'
p1369
(lp1370
S'san bernardino, california'
p1371
asS'mesa, '
p1372
(lp1373
S'mesa, arizona'
p1374
asS'oklahoma cit'
p1375
(lp1376
S'oklahoma city, oklahoma'
p1377
asS'chesapeake,'
p1378
(lp1379
S'chesapeake, virginia'
p1380
asS'nizama'
p1381
(lp1382
S'nizamabad'
p1383
asS'mira-bhayand'
p1384
(lp1385
S'mira-bhayandar'
p1386
asS'kalyan'
p1387
(lp1388
S'kalyan-dombivali'
p1389
asS'tumku'
p1390
(lp1391
S'tumkur'
p1392
asS'sai'
p1393
(lp1394
S'saint paul, minnesota'
p1395
aS'saint petersburg, florida'
p1396
asS'rohta'
p1397
(lp1398
S'rohtak'
p1399
asS'ana'
p1400
(lp1401
S'anaheim, california'
p1402
asS'jamshe'
p1403
(lp1404
S'jamshedpur'
p1405
asS'greensboro, no'
p1406
(lp1407
S'greensboro, north carolina'
p1408
asS'mathur'
p1409
(lp1410
S'mathura'
p1411
asS'fre'
p1412
(lp1413
S'fremont, california'
p1414
aS'fresno, california'
p1415
asS'sal'
p1416
(lp1417
S'salem'
p1418
asS'durha'
p1419
(lp1420
S'durham, north carolina'
p1421
asS'newark, new jerse'
p1422
(lp1423
S'newark, new jersey'
p1424
asS'arlington, t'
p1425
(lp1426
S'arlington, texas'
p1427
asS'fort wayne, i'
p1428
(lp1429
S'fort wayne, indiana'
p1430
asS'jabal'
p1431
(lp1432
S'jabalpur'
p1433
asS'san juan,'
p1434
(lp1435
S'san juan, puerto rico'
p1436
asS'guwa'
p1437
(lp1438
S'guwahati'
p1439
asS'greensb'
p1440
(lp1441
S'greensboro, north carolina'
p1442
asS'ujj'
p1443
(lp1444
S'ujjain'
p1445
asS'chul'
p1446
(lp1447
S'chula vista, california'
p1448
asS'irving'
p1449
(lp1450
S'irving, texas'
p1451
asS'irvine'
p1452
(lp1453
S'irvine, california'
p1454
asS'dava'
p1455
(lp1456
S'davanagere'
p1457
asS'anchora'
p1458
(lp1459
S'anchorage, alaska'
p1460
asS'jacksonville, fl'
p1461
(lp1462
S'jacksonville, florida'
p1463
asS'seattle, washingto'
p1464
(lp1465
S'seattle, washington'
p1466
asS'tirup'
p1467
(lp1468
S'tirupati'
p1469
aS'tiruppur'
p1470
asS'tiruv'
p1471
(lp1472
S'tiruvottiyur'
p1473
asS'aiz'
p1474
(lp1475
S'aizawl'
p1476
asS'pittsbur'
p1477
(lp1478
S'pittsburgh, pennsylvania'
p1479
asS'durham, n'
p1480
(lp1481
S'durham, north carolina'
p1482
asS'n'
p1483
(lp1484
S'nagpur'
p1485
aS'nanded'
p1486
aS'nashik'
p1487
aS'nashville, tennessee'
p1488
aS'navi mumbai'
p1489
aS'nellore'
p1490
aS'new delhi'
p1491
aS'new orleans, louisiana'
p1492
aS'new york, new york'
p1493
aS'newark, new jersey'
p1494
aS'nizamabad'
p1495
aS'noida'
p1496
aS'norfolk, virginia'
p1497
aS'north dumdum'
p1498
aS'north las vegas, nevada'
p1499
asS'aurora, '
p1500
(lp1501
S'aurora, colorado'
p1502
asS'auran'
p1503
(lp1504
S'aurangabad'
p1505
asS'san diego, califor'
p1506
(lp1507
S'san diego, california'
p1508
asS'honolulu cdp, '
p1509
(lp1510
S'honolulu cdp, hawaii'
p1511
asS'anchor'
p1512
(lp1513
S'anchorage, alaska'
p1514
asS'san juan'
p1515
(lp1516
S'san juan, puerto rico'
p1517
asS'minneapolis, mi'
p1518
(lp1519
S'minneapolis, minnesota'
p1520
asS'washington, '
p1521
(lp1522
S'washington, district of columbia'
p1523
asS'ir'
p1524
(lp1525
S'irvine, california'
p1526
aS'irving, texas'
p1527
asS'north las vegas, nev'
p1528
(lp1529
S'north las vegas, nevada'
p1530
asS'im'
p1531
(lp1532
S'imphal'
p1533
asS'orlando, fl'
p1534
(lp1535
S'orlando, florida'
p1536
asS'in'
p1537
(lp1538
S'indianapolis, indiana'
p1539
aS'indore'
p1540
asS'ic'
p1541
(lp1542
S'ichalkaranji'
p1543
asS'oakland, ca'
p1544
(lp1545
S'oakland, california'
p1546
asS'tiruchirappa'
p1547
(lp1548
S'tiruchirappalli'
p1549
asS'udai'
p1550
(lp1551
S'udaipur'
p1552
asS'philadelph'
p1553
(lp1554
S'philadelphia, pennsylvania'
p1555
asS'hono'
p1556
(lp1557
S'honolulu cdp, hawaii'
p1558
asS'bella'
p1559
(lp1560
S'bellary'
p1561
asS'dha'
p1562
(lp1563
S'dhanbad'
p1564
asS'dhu'
p1565
(lp1566
S'dhule'
p1567
asS'bhop'
p1568
(lp1569
S'bhopal'
p1570
asS'karim'
p1571
(lp1572
S'karimnagar'
p1573
asS'san bernardino, '
p1574
(lp1575
S'san bernardino, california'
p1576
asS'raic'
p1577
(lp1578
S'raichur'
p1579
asS'kakina'
p1580
(lp1581
S'kakinada'
p1582
asS'san bernardi'
p1583
(lp1584
S'san bernardino, california'
p1585
asS'ludhian'
p1586
(lp1587
S'ludhiana'
p1588
asS'kir'
p1589
(lp1590
S'kirari suleman nagar'
p1591
asS'kansas city'
p1592
(lp1593
S'kansas city, missouri'
p1594
asS'san diego, califo'
p1595
(lp1596
S'san diego, california'
p1597
asS'niz'
p1598
(lp1599
S'nizamabad'
p1600
asS'colorado springs, '
p1601
(lp1602
S'colorado springs, colorado'
p1603
asS'panihat'
p1604
(lp1605
S'panihati'
p1606
asS'hialeah, flor'
p1607
(lp1608
S'hialeah, florida'
p1609
asS'muzaffarpu'
p1610
(lp1611
S'muzaffarpur'
p1612
asS'omaha, neb'
p1613
(lp1614
S'omaha, nebraska'
p1615
asS'tampa,'
p1616
(lp1617
S'tampa, florida'
p1618
asS'rajpu'
p1619
(lp1620
S'rajpur sonarpur'
p1621
asS'albuquerque, new'
p1622
(lp1623
S'albuquerque, new mexico'
p1624
asS'min'
p1625
(lp1626
S'minneapolis, minnesota'
p1627
asS'thr'
p1628
(lp1629
S'thrissur'
p1630
asS'tho'
p1631
(lp1632
S'thoothukudi'
p1633
asS'el paso'
p1634
(lp1635
S'el paso, texas'
p1636
asS'new orleans, louisi'
p1637
(lp1638
S'new orleans, louisiana'
p1639
asS'thi'
p1640
(lp1641
S'thiruvananthapuram'
p1642
asS'new york,'
p1643
(lp1644
S'new york, new york'
p1645
asS'sangli-'
p1646
(lp1647
S'sangli-miraj & kupwad'
p1648
asS'sangli-miraj & k'
p1649
(lp1650
S'sangli-miraj & kupwad'
p1651
asS'kozh'
p1652
(lp1653
S'kozhikode'
p1654
asS'memphis, te'
p1655
(lp1656
S'memphis, tennessee'
p1657
asS'tha'
p1658
(lp1659
S'thane'
p1660
asS'lexington, k'
p1661
(lp1662
S'lexington, kentucky'
p1663
asS'saint petersburg, florid'
p1664
(lp1665
S'saint petersburg, florida'
p1666
asS'memphis, tennes'
p1667
(lp1668
S'memphis, tennessee'
p1669
asS'santa ana, ca'
p1670
(lp1671
S'santa ana, california'
p1672
asS'birmingham'
p1673
(lp1674
S'birmingham, alabama'
p1675
asS'kaly'
p1676
(lp1677
S'kalyan-dombivali'
p1678
asS'ambat'
p1679
(lp1680
S'ambattur'
p1681
asS'baton roug'
p1682
(lp1683
S'baton rouge, louisiana'
p1684
asS'milwaukee, wiscons'
p1685
(lp1686
S'milwaukee, wisconsin'
p1687
asS'scottsdale, ar'
p1688
(lp1689
S'scottsdale, arizona'
p1690
asS'thiruv'
p1691
(lp1692
S'thiruvananthapuram'
p1693
asS'tucson, ariz'
p1694
(lp1695
S'tucson, arizona'
p1696
asS'kolha'
p1697
(lp1698
S'kolhapur'
p1699
asS'kirari '
p1700
(lp1701
S'kirari suleman nagar'
p1702
asS'amara'
p1703
(lp1704
S'amaravati'
p1705
asS'kirari suleman'
p1706
(lp1707
S'kirari suleman nagar'
p1708
asS'hap'
p1709
(lp1710
S'hapur'
p1711
asS'winston\xe2\x80\x93sa'
p1712
(lp1713
S'winston\xe2\x80\x93salem, north carolina'
p1714
asS'har'
p1715
(lp1716
S'haridwar'
p1717
asS'chula vista, '
p1718
(lp1719
S'chula vista, california'
p1720
asS'elu'
p1721
(lp1722
S'eluru'
p1723
asS'karimnaga'
p1724
(lp1725
S'karimnagar'
p1726
asS'oklahoma city, o'
p1727
(lp1728
S'oklahoma city, oklahoma'
p1729
asS'ta'
p1730
(lp1731
S'tampa, florida'
p1732
asS'bihar shari'
p1733
(lp1734
S'bihar sharif'
p1735
asS'sacramento, californi'
p1736
(lp1737
S'sacramento, california'
p1738
asS'philadelphia, p'
p1739
(lp1740
S'philadelphia, pennsylvania'
p1741
asS'srina'
p1742
(lp1743
S'srinagar'
p1744
asS'el '
p1745
(lp1746
S'el paso, texas'
p1747
asS'baton rouge'
p1748
(lp1749
S'baton rouge, louisiana'
p1750
asS'orlando'
p1751
(lp1752
S'orlando, florida'
p1753
asS'gandhi'
p1754
(lp1755
S'gandhidham'
p1756
aS'gandhinagar'
p1757
asS'chandig'
p1758
(lp1759
S'chandigarh'
p1760
asS'rampu'
p1761
(lp1762
S'rampur'
p1763
asS'orlando, flo'
p1764
(lp1765
S'orlando, florida'
p1766
asS'baton rouge, louis'
p1767
(lp1768
S'baton rouge, louisiana'
p1769
asS'ulhasnaga'
p1770
(lp1771
S'ulhasnagar'
p1772
asS'new del'
p1773
(lp1774
S'new delhi'
p1775
asS'south dumdu'
p1776
(lp1777
S'south dumdum'
p1778
asS'fort wayne, ind'
p1779
(lp1780
S'fort wayne, indiana'
p1781
asS'pittsburgh, pe'
p1782
(lp1783
S'pittsburgh, pennsylvania'
p1784
asS'sacramento, calif'
p1785
(lp1786
S'sacramento, california'
p1787
asS'chandler, ari'
p1788
(lp1789
S'chandler, arizona'
p1790
asS'oakland,'
p1791
(lp1792
S'oakland, california'
p1793
asS'gandhinag'
p1794
(lp1795
S'gandhinagar'
p1796
asS'ich'
p1797
(lp1798
S'ichalkaranji'
p1799
asS'for'
p1800
(lp1801
S'fort wayne, indiana'
p1802
aS'fort worth, texas'
p1803
asS'fresno, c'
p1804
(lp1805
S'fresno, california'
p1806
asS'boston, massachu'
p1807
(lp1808
S'boston, massachusetts'
p1809
asS'denver, co'
p1810
(lp1811
S'denver, colorado'
p1812
asS'columbus'
p1813
(lp1814
S'columbus, ohio'
p1815
asS'jersey city'
p1816
(lp1817
S'jersey city, new jersey'
p1818
asS'ulhasn'
p1819
(lp1820
S'ulhasnagar'
p1821
asS'san bernardino, cali'
p1822
(lp1823
S'san bernardino, california'
p1824
asS'irving, '
p1825
(lp1826
S'irving, texas'
p1827
asS'saint petersburg'
p1828
(lp1829
S'saint petersburg, florida'
p1830
asS'corp'
p1831
(lp1832
S'corpus christi, texas'
p1833
asS'pla'
p1834
(lp1835
S'plano, texas'
p1836
asS'glendale, arizo'
p1837
(lp1838
S'glendale, arizona'
p1839
asS'davanag'
p1840
(lp1841
S'davanagere'
p1842
asS'stockton, '
p1843
(lp1844
S'stockton, california'
p1845
asS'oklahoma city, ok'
p1846
(lp1847
S'oklahoma city, oklahoma'
p1848
asS'garland, '
p1849
(lp1850
S'garland, texas'
p1851
asS'ulhasna'
p1852
(lp1853
S'ulhasnagar'
p1854
asS'long beach, cali'
p1855
(lp1856
S'long beach, california'
p1857
asS'kozhikod'
p1858
(lp1859
S'kozhikode'
p1860
asS'colorado s'
p1861
(lp1862
S'colorado springs, colorado'
p1863
asS'o'
p1864
(lp1865
S'oakland, california'
p1866
aS'oklahoma city, oklahoma'
p1867
aS'omaha, nebraska'
p1868
aS'orlando, florida'
p1869
aS'ozhukarai'
p1870
asS'rajpur s'
p1871
(lp1872
S'rajpur sonarpur'
p1873
asS'tiruvottiyu'
p1874
(lp1875
S'tiruvottiyur'
p1876
asS'bhaga'
p1877
(lp1878
S'bhagalpur'
p1879
asS'bath'
p1880
(lp1881
S'bathinda'
p1882
asS'detroit, michi'
p1883
(lp1884
S'detroit, michigan'
p1885
asS'maheshtal'
p1886
(lp1887
S'maheshtala'
p1888
asS'bato'
p1889
(lp1890
S'baton rouge, louisiana'
p1891
asS'sol'
p1892
(lp1893
S'solapur'
p1894
asS'ahm'
p1895
(lp1896
S'ahmedabad'
p1897
aS'ahmednagar'
p1898
asS'coimbato'
p1899
(lp1900
S'coimbatore'
p1901
asS'sou'
p1902
(lp1903
S'south dumdum'
p1904
asS'nashville, '
p1905
(lp1906
S'nashville, tennessee'
p1907
asS'ghaz'
p1908
(lp1909
S'ghaziabad'
p1910
asS'dewa'
p1911
(lp1912
S'dewas'
p1913
asS'las veg'
p1914
(lp1915
S'las vegas, nevada'
p1916
asS'new york, new'
p1917
(lp1918
S'new york, new york'
p1919
asS'tucson, a'
p1920
(lp1921
S'tucson, arizona'
p1922
asS'tamp'
p1923
(lp1924
S'tampa, florida'
p1925
asS'was'
p1926
(lp1927
S'washington, district of columbia'
p1928
asS'town of '
p1929
(lp1930
S'town of gilbert, arizona'
p1931
asS'ramag'
p1932
(lp1933
S'ramagundam'
p1934
asS'honolulu cdp, hawai'
p1935
(lp1936
S'honolulu cdp, hawaii'
p1937
asS'allaha'
p1938
(lp1939
S'allahabad'
p1940
asS'irving, texa'
p1941
(lp1942
S'irving, texas'
p1943
asS'solap'
p1944
(lp1945
S'solapur'
p1946
asS'hubballi-dha'
p1947
(lp1948
S'hubballi-dharwad'
p1949
asS'berh'
p1950
(lp1951
S'berhampur'
p1952
asS'fort'
p1953
(lp1954
S'fort wayne, indiana'
p1955
aS'fort worth, texas'
p1956
asS'arlingt'
p1957
(lp1958
S'arlington, texas'
p1959
asS'fort w'
p1960
(lp1961
S'fort wayne, indiana'
p1962
aS'fort worth, texas'
p1963
asS'louisville, kent'
p1964
(lp1965
S'louisville, kentucky'
p1966
asS'adilaba'
p1967
(lp1968
S'adilabad'
p1969
asS'tucson'
p1970
(lp1971
S'tucson, arizona'
p1972
asS'chesapeake, v'
p1973
(lp1974
S'chesapeake, virginia'
p1975
asS'st. louis, missou'
p1976
(lp1977
S'st. louis, missouri'
p1978
asS'baltimo'
p1979
(lp1980
S'baltimore, maryland'
p1981
asS'new orleans, louisian'
p1982
(lp1983
S'new orleans, louisiana'
p1984
asS'shim'
p1985
(lp1986
S'shimla'
p1987
asS'fremont, ca'
p1988
(lp1989
S'fremont, california'
p1990
asS'lubbo'
p1991
(lp1992
S'lubbock, texas'
p1993
asS'fort wayne, india'
p1994
(lp1995
S'fort wayne, indiana'
p1996
asS'tampa, fl'
p1997
(lp1998
S'tampa, florida'
p1999
asS'virginia beach, virgini'
p2000
(lp2001
S'virginia beach, virginia'
p2002
asS'kha'
p2003
(lp2004
S'khammam'
p2005
asS'plan'
p2006
(lp2007
S'plano, texas'
p2008
asS'junagad'
p2009
(lp2010
S'junagadh'
p2011
asS'shiv'
p2012
(lp2013
S'shivamogga'
p2014
asS'tiruvotti'
p2015
(lp2016
S'tiruvottiyur'
p2017
asS'ichalk'
p2018
(lp2019
S'ichalkaranji'
p2020
asS'ni'
p2021
(lp2022
S'nizamabad'
p2023
asS'no'
p2024
(lp2025
S'noida'
p2026
aS'norfolk, virginia'
p2027
aS'north dumdum'
p2028
aS'north las vegas, nevada'
p2029
asS'boston, massachuset'
p2030
(lp2031
S'boston, massachusetts'
p2032
asS'ne'
p2033
(lp2034
S'nellore'
p2035
aS'new delhi'
p2036
aS'new orleans, louisiana'
p2037
aS'new york, new york'
p2038
aS'newark, new jersey'
p2039
asS'tir'
p2040
(lp2041
S'tiruchirappalli'
p2042
aS'tirunelveli'
p2043
aS'tirupati'
p2044
aS'tiruppur'
p2045
aS'tiruvottiyur'
p2046
asS'chandler, '
p2047
(lp2048
S'chandler, arizona'
p2049
asS'ulhasnag'
p2050
(lp2051
S'ulhasnagar'
p2052
asS'san antonio'
p2053
(lp2054
S'san antonio, texas'
p2055
asS'town of gilbert,'
p2056
(lp2057
S'town of gilbert, arizona'
p2058
asS'san antonio, texa'
p2059
(lp2060
S'san antonio, texas'
p2061
asS'colorado springs, co'
p2062
(lp2063
S'colorado springs, colorado'
p2064
asS'garland'
p2065
(lp2066
S'garland, texas'
p2067
asS'cleveland, '
p2068
(lp2069
S'cleveland, ohio'
p2070
asS'san jose'
p2071
(lp2072
S'san jose, california'
p2073
asS'bhatpar'
p2074
(lp2075
S'bhatpara'
p2076
asS'corpus christ'
p2077
(lp2078
S'corpus christi, texas'
p2079
asS'hialeah, flori'
p2080
(lp2081
S'hialeah, florida'
p2082
asS'south du'
p2083
(lp2084
S'south dumdum'
p2085
asS'ralei'
p2086
(lp2087
S'raleigh, north carolina'
p2088
asS'hialeah, f'
p2089
(lp2090
S'hialeah, florida'
p2091
asS'rajpur '
p2092
(lp2093
S'rajpur sonarpur'
p2094
asS'karimna'
p2095
(lp2096
S'karimnagar'
p2097
asS'jacksonvil'
p2098
(lp2099
S'jacksonville, florida'
p2100
asS'boston, mass'
p2101
(lp2102
S'boston, massachusetts'
p2103
asS'louisville, ke'
p2104
(lp2105
S'louisville, kentucky'
p2106
asS'indi'
p2107
(lp2108
S'indianapolis, indiana'
p2109
asS'puduch'
p2110
(lp2111
S'puducherry'
p2112
asS'jaland'
p2113
(lp2114
S'jalandhar'
p2115
asS'san bernardino, ca'
p2116
(lp2117
S'san bernardino, california'
p2118
asS'corpu'
p2119
(lp2120
S'corpus christi, texas'
p2121
asS'milw'
p2122
(lp2123
S'milwaukee, wisconsin'
p2124
asS'jersey city, new '
p2125
(lp2126
S'jersey city, new jersey'
p2127
asS'cincinnati'
p2128
(lp2129
S'cincinnati, ohio'
p2130
asS'washington, dist'
p2131
(lp2132
S'washington, district of columbia'
p2133
asS'bhatp'
p2134
(lp2135
S'bhatpara'
p2136
asS'bhubane'
p2137
(lp2138
S'bhubaneswar'
p2139
asS'madison'
p2140
(lp2141
S'madison, wisconsin'
p2142
asS'thoot'
p2143
(lp2144
S'thoothukudi'
p2145
asS'phoenix, arizon'
p2146
(lp2147
S'phoenix, arizona'
p2148
asS'davan'
p2149
(lp2150
S'davanagere'
p2151
asS'philadelphia, pe'
p2152
(lp2153
S'philadelphia, pennsylvania'
p2154
asS'san bernardin'
p2155
(lp2156
S'san bernardino, california'
p2157
asS'milwaukee, wi'
p2158
(lp2159
S'milwaukee, wisconsin'
p2160
asS'portland, o'
p2161
(lp2162
S'portland, oregon'
p2163
asS'shahjahan'
p2164
(lp2165
S'shahjahanpur'
p2166
asS'gopal'
p2167
(lp2168
S'gopalpur'
p2169
asS'phoen'
p2170
(lp2171
S'phoenix, arizona'
p2172
asS'henderson'
p2173
(lp2174
S'henderson, nevada'
p2175
asS'scottsdal'
p2176
(lp2177
S'scottsdale, arizona'
p2178
asS'philadelphia, '
p2179
(lp2180
S'philadelphia, pennsylvania'
p2181
asS'durham, north car'
p2182
(lp2183
S'durham, north carolina'
p2184
asS'farru'
p2185
(lp2186
S'farrukhabad'
p2187
asS'kansas city, '
p2188
(lp2189
S'kansas city, missouri'
p2190
asS'jers'
p2191
(lp2192
S'jersey city, new jersey'
p2193
asS'jha'
p2194
(lp2195
S'jhansi'
p2196
asS'kakinad'
p2197
(lp2198
S'kakinada'
p2199
asS'vasai-'
p2200
(lp2201
S'vasai-virar'
p2202
asS'sangli-miraj & kupwa'
p2203
(lp2204
S'sangli-miraj & kupwad'
p2205
asS'gun'
p2206
(lp2207
S'guntur'
p2208
asS'gul'
p2209
(lp2210
S'gulbarga'
p2211
asS'bhagalpu'
p2212
(lp2213
S'bhagalpur'
p2214
asS'gur'
p2215
(lp2216
S'gurgaon'
p2217
asS'guw'
p2218
(lp2219
S'guwahati'
p2220
asS'colorado springs, c'
p2221
(lp2222
S'colorado springs, colorado'
p2223
asS'long beach, califor'
p2224
(lp2225
S'long beach, california'
p2226
asS'chesapeake, vi'
p2227
(lp2228
S'chesapeake, virginia'
p2229
asS'rajahm'
p2230
(lp2231
S'rajahmundry'
p2232
asS'fresno, californ'
p2233
(lp2234
S'fresno, california'
p2235
asS'bake'
p2236
(lp2237
S'bakersfield, california'
p2238
asS'buffalo, new '
p2239
(lp2240
S'buffalo, new york'
p2241
asS'port'
p2242
(lp2243
S'portland, oregon'
p2244
asS'guwah'
p2245
(lp2246
S'guwahati'
p2247
asS'sacram'
p2248
(lp2249
S'sacramento, california'
p2250
asS'oakl'
p2251
(lp2252
S'oakland, california'
p2253
asS'san dieg'
p2254
(lp2255
S'san diego, california'
p2256
asS'boston, massac'
p2257
(lp2258
S'boston, massachusetts'
p2259
asS'raleigh, '
p2260
(lp2261
S'raleigh, north carolina'
p2262
asS'san a'
p2263
(lp2264
S'san antonio, texas'
p2265
asS'laredo, te'
p2266
(lp2267
S'laredo, texas'
p2268
asS'lexing'
p2269
(lp2270
S'lexington, kentucky'
p2271
asS'charlotte, north c'
p2272
(lp2273
S'charlotte, north carolina'
p2274
asS'tiruvott'
p2275
(lp2276
S'tiruvottiyur'
p2277
asS'chula vista,'
p2278
(lp2279
S'chula vista, california'
p2280
asS'colorado springs'
p2281
(lp2282
S'colorado springs, colorado'
p2283
asS'greensbor'
p2284
(lp2285
S'greensboro, north carolina'
p2286
asS'saint paul, minn'
p2287
(lp2288
S'saint paul, minnesota'
p2289
asS'kama'
p2290
(lp2291
S'kamarhati'
p2292
asS'bhila'
p2293
(lp2294
S'bhilai'
p2295
asS'santa ana, '
p2296
(lp2297
S'santa ana, california'
p2298
asS'miami, flo'
p2299
(lp2300
S'miami, florida'
p2301
asS'oakland, californ'
p2302
(lp2303
S'oakland, california'
p2304
asS'raich'
p2305
(lp2306
S'raichur'
p2307
asS'portlan'
p2308
(lp2309
S'portland, oregon'
p2310
asS'chitto'
p2311
(lp2312
S'chittoor'
p2313
asS're'
p2314
(lp2315
S'reno, nevada'
p2316
aS'rewa'
p2317
asS'las ve'
p2318
(lp2319
S'las vegas, nevada'
p2320
asS'virginia beach'
p2321
(lp2322
S'virginia beach, virginia'
p2323
asS'town of gilbert, a'
p2324
(lp2325
S'town of gilbert, arizona'
p2326
asS'mira-bhay'
p2327
(lp2328
S'mira-bhayandar'
p2329
asS'banga'
p2330
(lp2331
S'bangalore'
p2332
asS'arlington, tex'
p2333
(lp2334
S'arlington, texas'
p2335
asS'belga'
p2336
(lp2337
S'belgaum'
p2338
asS'shivamo'
p2339
(lp2340
S'shivamogga'
p2341
asS'bos'
p2342
(lp2343
S'boston, massachusetts'
p2344
asS'lexington, ken'
p2345
(lp2346
S'lexington, kentucky'
p2347
asS'bok'
p2348
(lp2349
S'bokaro'
p2350
asS'saint petersbur'
p2351
(lp2352
S'saint petersburg, florida'
p2353
asS'durgap'
p2354
(lp2355
S'durgapur'
p2356
asS'saint petersburg,'
p2357
(lp2358
S'saint petersburg, florida'
p2359
asS'denver, c'
p2360
(lp2361
S'denver, colorado'
p2362
asS'san francisco, cali'
p2363
(lp2364
S'san francisco, california'
p2365
asS'washington, district of colu'
p2366
(lp2367
S'washington, district of columbia'
p2368
asS'saint petersburg, '
p2369
(lp2370
S'saint petersburg, florida'
p2371
asS'muzaffarna'
p2372
(lp2373
S'muzaffarnagar'
p2374
asS'durham'
p2375
(lp2376
S'durham, north carolina'
p2377
asS'seattl'
p2378
(lp2379
S'seattle, washington'
p2380
asS'long beach,'
p2381
(lp2382
S'long beach, california'
p2383
asS'bakersf'
p2384
(lp2385
S'bakersfield, california'
p2386
asS'minneapolis, min'
p2387
(lp2388
S'minneapolis, minnesota'
p2389
asS'thri'
p2390
(lp2391
S'thrissur'
p2392
asS'chesapeake, vir'
p2393
(lp2394
S'chesapeake, virginia'
p2395
asS'hialeah, flo'
p2396
(lp2397
S'hialeah, florida'
p2398
asS'san be'
p2399
(lp2400
S'san bernardino, california'
p2401
asS'new york, n'
p2402
(lp2403
S'new york, new york'
p2404
asS'fort wayne, in'
p2405
(lp2406
S'fort wayne, indiana'
p2407
asS'bharatp'
p2408
(lp2409
S'bharatpur'
p2410
asS'virgi'
p2411
(lp2412
S'virginia beach, virginia'
p2413
asS'shivamogg'
p2414
(lp2415
S'shivamogga'
p2416
asS'siligu'
p2417
(lp2418
S'siliguri'
p2419
asS'reno, nevad'
p2420
(lp2421
S'reno, nevada'
p2422
asS'detro'
p2423
(lp2424
S'detroit, michigan'
p2425
asS'phoenix, '
p2426
(lp2427
S'phoenix, arizona'
p2428
asS'darbh'
p2429
(lp2430
S'darbhanga'
p2431
asS'detroit, mic'
p2432
(lp2433
S'detroit, michigan'
p2434
asS'washington, distri'
p2435
(lp2436
S'washington, district of columbia'
p2437
asS'pittsburgh, '
p2438
(lp2439
S'pittsburgh, pennsylvania'
p2440
asS'ulh'
p2441
(lp2442
S'ulhasnagar'
p2443
asS'atlanta,'
p2444
(lp2445
S'atlanta, georgia'
p2446
asS'sout'
p2447
(lp2448
S'south dumdum'
p2449
asS'amarav'
p2450
(lp2451
S'amaravati'
p2452
asS'amber'
p2453
(lp2454
S'ambernath'
p2455
asS'greensboro, north carolin'
p2456
(lp2457
S'greensboro, north carolina'
p2458
asS'asanso'
p2459
(lp2460
S'asansol'
p2461
asS'st. louis, miss'
p2462
(lp2463
S'st. louis, missouri'
p2464
asS'winston'
p2465
(lp2466
S'winston\xe2\x80\x93salem, north carolina'
p2467
asS'chit'
p2468
(lp2469
S'chittoor'
p2470
asS'washington,'
p2471
(lp2472
S'washington, district of columbia'
p2473
asS'wichita, k'
p2474
(lp2475
S'wichita, kansas'
p2476
asS'sangli-miraj &'
p2477
(lp2478
S'sangli-miraj & kupwad'
p2479
asS'chic'
p2480
(lp2481
S'chicago, illinois'
p2482
asS'scotts'
p2483
(lp2484
S'scottsdale, arizona'
p2485
asS'washington, distr'
p2486
(lp2487
S'washington, district of columbia'
p2488
asS'oklaho'
p2489
(lp2490
S'oklahoma city, oklahoma'
p2491
asS'birmingham, alaba'
p2492
(lp2493
S'birmingham, alabama'
p2494
asS'boston,'
p2495
(lp2496
S'boston, massachusetts'
p2497
asS'garland,'
p2498
(lp2499
S'garland, texas'
p2500
asS'lubbock'
p2501
(lp2502
S'lubbock, texas'
p2503
asS'thooth'
p2504
(lp2505
S'thoothukudi'
p2506
asS'norfolk, v'
p2507
(lp2508
S'norfolk, virginia'
p2509
asS'impha'
p2510
(lp2511
S'imphal'
p2512
asS'begu'
p2513
(lp2514
S'begusarai'
p2515
asS'purn'
p2516
(lp2517
S'purnia'
p2518
asS'winston\xe2\x80\x93sal'
p2519
(lp2520
S'winston\xe2\x80\x93salem, north carolina'
p2521
asS'kansas city, misso'
p2522
(lp2523
S'kansas city, missouri'
p2524
asS'winston\xe2\x80\x93salem, '
p2525
(lp2526
S'winston\xe2\x80\x93salem, north carolina'
p2527
asS'mat'
p2528
(lp2529
S'mathura'
p2530
asS'philadelp'
p2531
(lp2532
S'philadelphia, pennsylvania'
p2533
asS'visakhapat'
p2534
(lp2535
S'visakhapatnam'
p2536
asS'mad'
p2537
(lp2538
S'madison, wisconsin'
p2539
aS'madurai'
p2540
asS'aurang'
p2541
(lp2542
S'aurangabad'
p2543
asS'saint pete'
p2544
(lp2545
S'saint petersburg, florida'
p2546
asS'mah'
p2547
(lp2548
S'maheshtala'
p2549
asS'mal'
p2550
(lp2551
S'malegaon'
p2552
asS'man'
p2553
(lp2554
S'mangalore'
p2555
asS'kurn'
p2556
(lp2557
S'kurnool'
p2558
asS'north dumdu'
p2559
(lp2560
S'north dumdum'
p2561
asS'san antonio, t'
p2562
(lp2563
S'san antonio, texas'
p2564
asS'jaip'
p2565
(lp2566
S'jaipur'
p2567
asS'sr'
p2568
(lp2569
S'sri ganganagar'
p2570
aS'srinagar'
p2571
asS'omaha, n'
p2572
(lp2573
S'omaha, nebraska'
p2574
asS'su'
p2575
(lp2576
S'surat'
p2577
asS'st'
p2578
(lp2579
S'st. louis, missouri'
p2580
aS'stockton, california'
p2581
asS'si'
p2582
(lp2583
S'sikar'
p2584
aS'siliguri'
p2585
asS'sh'
p2586
(lp2587
S'shahjahanpur'
p2588
aS'shimla'
p2589
aS'shivamogga'
p2590
asS'so'
p2591
(lp2592
S'solapur'
p2593
aS'sonipat'
p2594
aS'south dumdum'
p2595
asS'gha'
p2596
(lp2597
S'ghaziabad'
p2598
asS'sc'
p2599
(lp2600
S'scottsdale, arizona'
p2601
asS'riversid'
p2602
(lp2603
S'riverside, california'
p2604
asS'baton ro'
p2605
(lp2606
S'baton rouge, louisiana'
p2607
asS'manga'
p2608
(lp2609
S'mangalore'
p2610
asS'se'
p2611
(lp2612
S'seattle, washington'
p2613
asS'junag'
p2614
(lp2615
S'junagadh'
p2616
asS'chesapeake, '
p2617
(lp2618
S'chesapeake, virginia'
p2619
asS'colu'
p2620
(lp2621
S'columbus, ohio'
p2622
asS'hende'
p2623
(lp2624
S'henderson, nevada'
p2625
asS'kalyan-'
p2626
(lp2627
S'kalyan-dombivali'
p2628
asS'kansas city, mi'
p2629
(lp2630
S'kansas city, missouri'
p2631
asS'cutt'
p2632
(lp2633
S'cuttack'
p2634
asS'colo'
p2635
(lp2636
S'colorado springs, colorado'
p2637
asS'raleigh, nor'
p2638
(lp2639
S'raleigh, north carolina'
p2640
asS'bangalor'
p2641
(lp2642
S'bangalore'
p2643
asS'el paso, t'
p2644
(lp2645
S'el paso, texas'
p2646
asS'sata'
p2647
(lp2648
S'satara'
p2649
asS'lexington, '
p2650
(lp2651
S'lexington, kentucky'
p2652
asS'louisville'
p2653
(lp2654
S'louisville, kentucky'
p2655
asS'tuls'
p2656
(lp2657
S'tulsa, oklahoma'
p2658
asS'greensboro, n'
p2659
(lp2660
S'greensboro, north carolina'
p2661
asS'sangli-mira'
p2662
(lp2663
S'sangli-miraj & kupwad'
p2664
asS'tulsa, oklaho'
p2665
(lp2666
S'tulsa, oklahoma'
p2667
asS'sangli-miraj & kupw'
p2668
(lp2669
S'sangli-miraj & kupwad'
p2670
asS'noi'
p2671
(lp2672
S'noida'
p2673
asS'muzaf'
p2674
(lp2675
S'muzaffarnagar'
p2676
aS'muzaffarpur'
p2677
asS'madur'
p2678
(lp2679
S'madurai'
p2680
asS'farrukhaba'
p2681
(lp2682
S'farrukhabad'
p2683
asS'durham,'
p2684
(lp2685
S'durham, north carolina'
p2686
asS'kamarhat'
p2687
(lp2688
S'kamarhati'
p2689
asS'sri gangana'
p2690
(lp2691
S'sri ganganagar'
p2692
asS'irvine, californi'
p2693
(lp2694
S'irvine, california'
p2695
asS'nor'
p2696
(lp2697
S'norfolk, virginia'
p2698
aS'north dumdum'
p2699
aS'north las vegas, nevada'
p2700
asS'thris'
p2701
(lp2702
S'thrissur'
p2703
asS'jersey city, n'
p2704
(lp2705
S'jersey city, new jersey'
p2706
asS'davanager'
p2707
(lp2708
S'davanagere'
p2709
asS'phoenix, a'
p2710
(lp2711
S'phoenix, arizona'
p2712
asS'mahes'
p2713
(lp2714
S'maheshtala'
p2715
asS'garland, t'
p2716
(lp2717
S'garland, texas'
p2718
asS'long beach, cal'
p2719
(lp2720
S'long beach, california'
p2721
asS'minneapolis, minnesot'
p2722
(lp2723
S'minneapolis, minnesota'
p2724
asS'fresno, cal'
p2725
(lp2726
S'fresno, california'
p2727
asS'el'
p2728
(lp2729
S'el paso, texas'
p2730
aS'eluru'
p2731
asS'baltimore,'
p2732
(lp2733
S'baltimore, maryland'
p2734
asS'nashville, tenness'
p2735
(lp2736
S'nashville, tennessee'
p2737
asS'greensboro, north c'
p2738
(lp2739
S'greensboro, north carolina'
p2740
asS'irvine, califor'
p2741
(lp2742
S'irvine, california'
p2743
asS'chicago, illi'
p2744
(lp2745
S'chicago, illinois'
p2746
asS'bellar'
p2747
(lp2748
S'bellary'
p2749
asS'greensboro, nor'
p2750
(lp2751
S'greensboro, north carolina'
p2752
asS'saint paul, minnesot'
p2753
(lp2754
S'saint paul, minnesota'
p2755
asS'ozhukar'
p2756
(lp2757
S'ozhukarai'
p2758
asS'et'
p2759
(lp2760
S'etawah'
p2761
asS'fresno, califo'
p2762
(lp2763
S'fresno, california'
p2764
asS'kans'
p2765
(lp2766
S'kansas city, missouri'
p2767
asS'kanp'
p2768
(lp2769
S'kanpur'
p2770
asS'er'
p2771
(lp2772
S'erode'
p2773
asS'jackson'
p2774
(lp2775
S'jacksonville, florida'
p2776
asS'norfolk, '
p2777
(lp2778
S'norfolk, virginia'
p2779
asS'oklahoma'
p2780
(lp2781
S'oklahoma city, oklahoma'
p2782
asS'alwa'
p2783
(lp2784
S'alwar'
p2785
asS'irvine, californ'
p2786
(lp2787
S'irvine, california'
p2788
asS'luckno'
p2789
(lp2790
S'lucknow'
p2791
asS'indianapol'
p2792
(lp2793
S'indianapolis, indiana'
p2794
asS'albuq'
p2795
(lp2796
S'albuquerque, new mexico'
p2797
asS'faridaba'
p2798
(lp2799
S'faridabad'
p2800
asS'seattle, wash'
p2801
(lp2802
S'seattle, washington'
p2803
asS'mahesht'
p2804
(lp2805
S'maheshtala'
p2806
asS'baras'
p2807
(lp2808
S'barasat'
p2809
asS'fremont, cali'
p2810
(lp2811
S'fremont, california'
p2812
asS'albuquerque'
p2813
(lp2814
S'albuquerque, new mexico'
p2815
asS'orl'
p2816
(lp2817
S'orlando, florida'
p2818
asS'scottsdale'
p2819
(lp2820
S'scottsdale, arizona'
p2821
asS'baran'
p2822
(lp2823
S'baranagar'
p2824
asS'washington, district of co'
p2825
(lp2826
S'washington, district of columbia'
p2827
asS'north las v'
p2828
(lp2829
S'north las vegas, nevada'
p2830
asS'tiruvot'
p2831
(lp2832
S'tiruvottiyur'
p2833
asS'madison, w'
p2834
(lp2835
S'madison, wisconsin'
p2836
asS'lubbock, te'
p2837
(lp2838
S'lubbock, texas'
p2839
asS'albuquerque, n'
p2840
(lp2841
S'albuquerque, new mexico'
p2842
asS'bhilwa'
p2843
(lp2844
S'bhilwara'
p2845
asS'toledo, o'
p2846
(lp2847
S'toledo, ohio'
p2848
asS'fremont, californ'
p2849
(lp2850
S'fremont, california'
p2851
asS'henderson, nevad'
p2852
(lp2853
S'henderson, nevada'
p2854
asS'okla'
p2855
(lp2856
S'oklahoma city, oklahoma'
p2857
asS'baton rouge,'
p2858
(lp2859
S'baton rouge, louisiana'
p2860
asS'visak'
p2861
(lp2862
S'visakhapatnam'
p2863
asS'thiruvananth'
p2864
(lp2865
S'thiruvananthapuram'
p2866
asS'albuquerq'
p2867
(lp2868
S'albuquerque, new mexico'
p2869
asS'louisville, ken'
p2870
(lp2871
S'louisville, kentucky'
p2872
asS'panipa'
p2873
(lp2874
S'panipat'
p2875
asS'raleigh, north car'
p2876
(lp2877
S'raleigh, north carolina'
p2878
asS'ghazi'
p2879
(lp2880
S'ghaziabad'
p2881
asS'fresno, '
p2882
(lp2883
S'fresno, california'
p2884
asS'virgin'
p2885
(lp2886
S'virginia beach, virginia'
p2887
asS'los angeles, californi'
p2888
(lp2889
S'los angeles, california'
p2890
asS'barei'
p2891
(lp2892
S'bareilly'
p2893
asS'irvine, califo'
p2894
(lp2895
S'irvine, california'
p2896
asS'memphis, tenne'
p2897
(lp2898
S'memphis, tennessee'
p2899
asS'jacksonville, flor'
p2900
(lp2901
S'jacksonville, florida'
p2902
asS'kalyan-domb'
p2903
(lp2904
S'kalyan-dombivali'
p2905
asS'minneapo'
p2906
(lp2907
S'minneapolis, minnesota'
p2908
asS'north las '
p2909
(lp2910
S'north las vegas, nevada'
p2911
asS'hub'
p2912
(lp2913
S'hubballi-dharwad'
p2914
asS'pittsburgh'
p2915
(lp2916
S'pittsburgh, pennsylvania'
p2917
asS'birmingham, '
p2918
(lp2919
S'birmingham, alabama'
p2920
asS'sangli-m'
p2921
(lp2922
S'sangli-miraj & kupwad'
p2923
asS'memp'
p2924
(lp2925
S'memphis, tennessee'
p2926
asS'cutta'
p2927
(lp2928
S'cuttack'
p2929
asS'north du'
p2930
(lp2931
S'north dumdum'
p2932
asS'seat'
p2933
(lp2934
S'seattle, washington'
p2935
asS'than'
p2936
(lp2937
S'thane'
p2938
asS'glendale, '
p2939
(lp2940
S'glendale, arizona'
p2941
asS'nizam'
p2942
(lp2943
S'nizamabad'
p2944
asS'sri ganganaga'
p2945
(lp2946
S'sri ganganagar'
p2947
asS'tulsa, ok'
p2948
(lp2949
S'tulsa, oklahoma'
p2950
asS'riverside, c'
p2951
(lp2952
S'riverside, california'
p2953
asS'wichita, '
p2954
(lp2955
S'wichita, kansas'
p2956
asS'thoothukud'
p2957
(lp2958
S'thoothukudi'
p2959
asS'seattle, wa'
p2960
(lp2961
S'seattle, washington'
p2962
asS'portland, orego'
p2963
(lp2964
S'portland, oregon'
p2965
asS'malega'
p2966
(lp2967
S'malegaon'
p2968
asS'greensboro, north caroli'
p2969
(lp2970
S'greensboro, north carolina'
p2971
asS'mangal'
p2972
(lp2973
S'mangalore'
p2974
asS'sacramento, '
p2975
(lp2976
S'sacramento, california'
p2977
asS'vija'
p2978
(lp2979
S'vijayanagaram'
p2980
aS'vijayawada'
p2981
asS'fremont,'
p2982
(lp2983
S'fremont, california'
p2984
asS'sam'
p2985
(lp2986
S'sambalpur'
p2987
asS'anc'
p2988
(lp2989
S'anchorage, alaska'
p2990
asS'sac'
p2991
(lp2992
S'sacramento, california'
p2993
asS'sag'
p2994
(lp2995
S'sagar'
p2996
asS'stockton, ca'
p2997
(lp2998
S'stockton, california'
p2999
asS'reno'
p3000
(lp3001
S'reno, nevada'
p3002
asS'new orleans, louisia'
p3003
(lp3004
S'new orleans, louisiana'
p3005
asS'san bernardino, califor'
p3006
(lp3007
S'san bernardino, california'
p3008
asS'philadelphia, pen'
p3009
(lp3010
S'philadelphia, pennsylvania'
p3011
asS'patia'
p3012
(lp3013
S'patiala'
p3014
asS'cleveland, o'
p3015
(lp3016
S'cleveland, ohio'
p3017
asS'orland'
p3018
(lp3019
S'orlando, florida'
p3020
asS'charlotte, north'
p3021
(lp3022
S'charlotte, north carolina'
p3023
asS'omaha, nebrask'
p3024
(lp3025
S'omaha, nebraska'
p3026
asS'north las vega'
p3027
(lp3028
S'north las vegas, nevada'
p3029
asS'ghazia'
p3030
(lp3031
S'ghaziabad'
p3032
asS'sacramento, ca'
p3033
(lp3034
S'sacramento, california'
p3035
asS'sura'
p3036
(lp3037
S'surat'
p3038
asS'thiru'
p3039
(lp3040
S'thiruvananthapuram'
p3041
asS'fort wort'
p3042
(lp3043
S'fort worth, texas'
p3044
asS'aurora,'
p3045
(lp3046
S'aurora, colorado'
p3047
asS'portland, or'
p3048
(lp3049
S'portland, oregon'
p3050
asS'haridwa'
p3051
(lp3052
S'haridwar'
p3053
asS'anch'
p3054
(lp3055
S'anchorage, alaska'
p3056
asS'toledo, ohi'
p3057
(lp3058
S'toledo, ohio'
p3059
asS'mangalo'
p3060
(lp3061
S'mangalore'
p3062
asS'pittsb'
p3063
(lp3064
S'pittsburgh, pennsylvania'
p3065
asS'phil'
p3066
(lp3067
S'philadelphia, pennsylvania'
p3068
asS'adila'
p3069
(lp3070
S'adilabad'
p3071
asS'sale'
p3072
(lp3073
S'salem'
p3074
asS'firozab'
p3075
(lp3076
S'firozabad'
p3077
asS'winston\xe2\x80\x93salem, nort'
p3078
(lp3079
S'winston\xe2\x80\x93salem, north carolina'
p3080
asS'omaha, nebra'
p3081
(lp3082
S'omaha, nebraska'
p3083
asS'colorado spring'
p3084
(lp3085
S'colorado springs, colorado'
p3086
asS'farrukh'
p3087
(lp3088
S'farrukhabad'
p3089
asS'madison, wiscons'
p3090
(lp3091
S'madison, wisconsin'
p3092
asS'raja'
p3093
(lp3094
S'rajahmundry'
p3095
asS'long be'
p3096
(lp3097
S'long beach, california'
p3098
asS'plano, '
p3099
(lp3100
S'plano, texas'
p3101
asS'tampa, '
p3102
(lp3103
S'tampa, florida'
p3104
asS'virginia be'
p3105
(lp3106
S'virginia beach, virginia'
p3107
asS'mirza'
p3108
(lp3109
S'mirzapur'
p3110
asS'ichalka'
p3111
(lp3112
S'ichalkaranji'
p3113
asS'rajp'
p3114
(lp3115
S'rajpur sonarpur'
p3116
asS'san francisco, '
p3117
(lp3118
S'san francisco, california'
p3119
asS'gulb'
p3120
(lp3121
S'gulbarga'
p3122
asS'bakersfield, c'
p3123
(lp3124
S'bakersfield, california'
p3125
asS'tulsa, '
p3126
(lp3127
S'tulsa, oklahoma'
p3128
asS'gandhidha'
p3129
(lp3130
S'gandhidham'
p3131
asS'solapu'
p3132
(lp3133
S'solapur'
p3134
asS'sacramento, cal'
p3135
(lp3136
S'sacramento, california'
p3137
asS'minneapolis, '
p3138
(lp3139
S'minneapolis, minnesota'
p3140
asS'charlotte, north '
p3141
(lp3142
S'charlotte, north carolina'
p3143
asS'memphis, tenn'
p3144
(lp3145
S'memphis, tennessee'
p3146
asS'nell'
p3147
(lp3148
S'nellore'
p3149
asS'fort wayne,'
p3150
(lp3151
S'fort wayne, indiana'
p3152
asS'oklahoma '
p3153
(lp3154
S'oklahoma city, oklahoma'
p3155
asS'san antonio, te'
p3156
(lp3157
S'san antonio, texas'
p3158
asS'colorado springs, colora'
p3159
(lp3160
S'colorado springs, colorado'
p3161
asS'niza'
p3162
(lp3163
S'nizamabad'
p3164
asS'raleigh, north carol'
p3165
(lp3166
S'raleigh, north carolina'
p3167
asS'linco'
p3168
(lp3169
S'lincoln, nebraska'
p3170
asS'ichalkaran'
p3171
(lp3172
S'ichalkaranji'
p3173
asS'new orleans, l'
p3174
(lp3175
S'new orleans, louisiana'
p3176
asS'pimp'
p3177
(lp3178
S'pimpri-chinchwad'
p3179
asS'wichita, kan'
p3180
(lp3181
S'wichita, kansas'
p3182
asS'memphis, tennesse'
p3183
(lp3184
S'memphis, tennessee'
p3185
asS'parbh'
p3186
(lp3187
S'parbhani'
p3188
asS'ramagunda'
p3189
(lp3190
S'ramagundam'
p3191
asS'pimpri'
p3192
(lp3193
S'pimpri-chinchwad'
p3194
asS'san diego, '
p3195
(lp3196
S'san diego, california'
p3197
asS'bijapu'
p3198
(lp3199
S'bijapur'
p3200
asS'toledo,'
p3201
(lp3202
S'toledo, ohio'
p3203
asS'saint '
p3204
(lp3205
S'saint paul, minnesota'
p3206
aS'saint petersburg, florida'
p3207
asS'san fra'
p3208
(lp3209
S'san francisco, california'
p3210
asS'madison, '
p3211
(lp3212
S'madison, wisconsin'
p3213
asS'miami, flori'
p3214
(lp3215
S'miami, florida'
p3216
asS'town of gilbert, ariz'
p3217
(lp3218
S'town of gilbert, arizona'
p3219
asS'bhilwar'
p3220
(lp3221
S'bhilwara'
p3222
asS'sangli-miraj & '
p3223
(lp3224
S'sangli-miraj & kupwad'
p3225
asS'philadelphia, pennsy'
p3226
(lp3227
S'philadelphia, pennsylvania'
p3228
asS'navi mu'
p3229
(lp3230
S'navi mumbai'
p3231
asS'winston\xe2\x80\x93salem, n'
p3232
(lp3233
S'winston\xe2\x80\x93salem, north carolina'
p3234
asS'lincoln, nebrask'
p3235
(lp3236
S'lincoln, nebraska'
p3237
asS'rourk'
p3238
(lp3239
S'rourkela'
p3240
aS'rourkela'
p3241
asS'tampa, flor'
p3242
(lp3243
S'tampa, florida'
p3244
asS'indianapolis, india'
p3245
(lp3246
S'indianapolis, indiana'
p3247
asS'sri gangan'
p3248
(lp3249
S'sri ganganagar'
p3250
asS'lincol'
p3251
(lp3252
S'lincoln, nebraska'
p3253
asS'wichita,'
p3254
(lp3255
S'wichita, kansas'
p3256
asS'philad'
p3257
(lp3258
S'philadelphia, pennsylvania'
p3259
asS'shiva'
p3260
(lp3261
S'shivamogga'
p3262
asS'durham, nort'
p3263
(lp3264
S'durham, north carolina'
p3265
asS'town of g'
p3266
(lp3267
S'town of gilbert, arizona'
p3268
asS'ambe'
p3269
(lp3270
S'ambernath'
p3271
asS'ambernat'
p3272
(lp3273
S'ambernath'
p3274
asS'amba'
p3275
(lp3276
S'ambattur'
p3277
asS'charlotte,'
p3278
(lp3279
S'charlotte, north carolina'
p3280
asS'henderso'
p3281
(lp3282
S'henderson, nevada'
p3283
asS'fir'
p3284
(lp3285
S'firozabad'
p3286
asS'el pas'
p3287
(lp3288
S'el paso, texas'
p3289
asS'ju'
p3290
(lp3291
S'junagadh'
p3292
asS'winston\xe2\x80\x93salem, no'
p3293
(lp3294
S'winston\xe2\x80\x93salem, north carolina'
p3295
asS'laredo, texa'
p3296
(lp3297
S'laredo, texas'
p3298
asS'jo'
p3299
(lp3300
S'jodhpur'
p3301
asS'jh'
p3302
(lp3303
S'jhansi'
p3304
asS'shahj'
p3305
(lp3306
S'shahjahanpur'
p3307
asS'san anto'
p3308
(lp3309
S'san antonio, texas'
p3310
asS'je'
p3311
(lp3312
S'jersey city, new jersey'
p3313
asS'tuc'
p3314
(lp3315
S'tucson, arizona'
p3316
asS'ja'
p3317
(lp3318
S'jabalpur'
p3319
aS'jacksonville, florida'
p3320
aS'jaipur'
p3321
aS'jalandhar'
p3322
aS'jalgaon'
p3323
aS'jalna'
p3324
aS'jammu'
p3325
aS'jamnagar'
p3326
aS'jamshedpur'
p3327
asS'kansas cit'
p3328
(lp3329
S'kansas city, missouri'
p3330
asS'charlotte, north carol'
p3331
(lp3332
S'charlotte, north carolina'
p3333
asS'gwa'
p3334
(lp3335
S'gwalior'
p3336
asS'plano, tex'
p3337
(lp3338
S'plano, texas'
p3339
asS'tirunelve'
p3340
(lp3341
S'tirunelveli'
p3342
asS'sangli-mi'
p3343
(lp3344
S'sangli-miraj & kupwad'
p3345
asS'vijayanag'
p3346
(lp3347
S'vijayanagaram'
p3348
asS's'
p3349
(lp3350
S'sacramento, california'
p3351
aS'sagar'
p3352
aS'saharanpur'
p3353
aS'saint paul, minnesota'
p3354
aS'saint petersburg, florida'
p3355
aS'salem'
p3356
aS'sambalpur'
p3357
aS'san antonio, texas'
p3358
aS'san bernardino, california'
p3359
aS'san diego, california'
p3360
aS'san francisco, california'
p3361
aS'san jose, california'
p3362
aS'san juan, puerto rico'
p3363
aS'sangli-miraj & kupwad'
p3364
aS'santa ana, california'
p3365
aS'satara'
p3366
aS'satna'
p3367
aS'scottsdale, arizona'
p3368
aS'seattle, washington'
p3369
aS'shahjahanpur'
p3370
aS'shimla'
p3371
aS'shivamogga'
p3372
aS'sikar'
p3373
aS'siliguri'
p3374
aS'solapur'
p3375
aS'sonipat'
p3376
aS'south dumdum'
p3377
aS'sri ganganagar'
p3378
aS'srinagar'
p3379
aS'st. louis, missouri'
p3380
aS'stockton, california'
p3381
aS'surat'
p3382
asS'houston'
p3383
(lp3384
S'houston, texas'
p3385
asS'aura'
p3386
(lp3387
S'aurangabad'
p3388
asS'mang'
p3389
(lp3390
S'mangalore'
p3391
asS'tul'
p3392
(lp3393
S'tulsa, oklahoma'
p3394
asS'auro'
p3395
(lp3396
S'aurora, colorado'
p3397
asS'bhavnaga'
p3398
(lp3399
S'bhavnagar'
p3400
asS'tucs'
p3401
(lp3402
S'tucson, arizona'
p3403
asS'baton rouge, louisian'
p3404
(lp3405
S'baton rouge, louisiana'
p3406
asS'color'
p3407
(lp3408
S'colorado springs, colorado'
p3409
asS'por'
p3410
(lp3411
S'portland, oregon'
p3412
asS'baltimor'
p3413
(lp3414
S'baltimore, maryland'
p3415
asS'san jose, '
p3416
(lp3417
S'san jose, california'
p3418
asS'sili'
p3419
(lp3420
S'siliguri'
p3421
asS'los angeles,'
p3422
(lp3423
S'los angeles, california'
p3424
asS'stockton, calif'
p3425
(lp3426
S'stockton, california'
p3427
asS'washington, distric'
p3428
(lp3429
S'washington, district of columbia'
p3430
asS'milwaukee, w'
p3431
(lp3432
S'milwaukee, wisconsin'
p3433
asS'thiruvananthapu'
p3434
(lp3435
S'thiruvananthapuram'
p3436
asS'karawa'
p3437
(lp3438
S'karawal nagar'
p3439
asS'saint paul'
p3440
(lp3441
S'saint paul, minnesota'
p3442
asS'corpus christi'
p3443
(lp3444
S'corpus christi, texas'
p3445
asS'virginia b'
p3446
(lp3447
S'virginia beach, virginia'
p3448
asS'kansas c'
p3449
(lp3450
S'kansas city, missouri'
p3451
asS'indianapolis, ind'
p3452
(lp3453
S'indianapolis, indiana'
p3454
asS'new o'
p3455
(lp3456
S'new orleans, louisiana'
p3457
asS'sacramento, californ'
p3458
(lp3459
S'sacramento, california'
p3460
asS'new d'
p3461
(lp3462
S'new delhi'
p3463
asS'sacrame'
p3464
(lp3465
S'sacramento, california'
p3466
asS'gorak'
p3467
(lp3468
S'gorakhpur'
p3469
asS'winston\xe2\x80\x93salem,'
p3470
(lp3471
S'winston\xe2\x80\x93salem, north carolina'
p3472
asS'karawal n'
p3473
(lp3474
S'karawal nagar'
p3475
asS'sacramento, califo'
p3476
(lp3477
S'sacramento, california'
p3478
asS'pittsburgh, penns'
p3479
(lp3480
S'pittsburgh, pennsylvania'
p3481
asS'anchorage, alas'
p3482
(lp3483
S'anchorage, alaska'
p3484
asS'milwaukee, wisconsi'
p3485
(lp3486
S'milwaukee, wisconsin'
p3487
asS'baltimore, mar'
p3488
(lp3489
S'baltimore, maryland'
p3490
asS'visakh'
p3491
(lp3492
S'visakhapatnam'
p3493
asS'mysor'
p3494
(lp3495
S'mysore'
p3496
asS'bhavn'
p3497
(lp3498
S'bhavnagar'
p3499
asS'chicago, illin'
p3500
(lp3501
S'chicago, illinois'
p3502
asS'cincinnati, o'
p3503
(lp3504
S'cincinnati, ohio'
p3505
asS'oklahoma city'
p3506
(lp3507
S'oklahoma city, oklahoma'
p3508
asS'saint petersb'
p3509
(lp3510
S'saint petersburg, florida'
p3511
asS'milwaukee, '
p3512
(lp3513
S'milwaukee, wisconsin'
p3514
asS'minnea'
p3515
(lp3516
S'minneapolis, minnesota'
p3517
asS'philade'
p3518
(lp3519
S'philadelphia, pennsylvania'
p3520
asS'oklahom'
p3521
(lp3522
S'oklahoma city, oklahoma'
p3523
asS'hend'
p3524
(lp3525
S'henderson, nevada'
p3526
asS'bathi'
p3527
(lp3528
S'bathinda'
p3529
asS'chula vista, cal'
p3530
(lp3531
S'chula vista, california'
p3532
asS'ramagun'
p3533
(lp3534
S'ramagundam'
p3535
asS'indianapoli'
p3536
(lp3537
S'indianapolis, indiana'
p3538
asS'bareil'
p3539
(lp3540
S'bareilly'
p3541
asS'par'
p3542
(lp3543
S'parbhani'
p3544
asS'fresno, californi'
p3545
(lp3546
S'fresno, california'
p3547
asS'pat'
p3548
(lp3549
S'patiala'
p3550
aS'patna'
p3551
asS'hialea'
p3552
(lp3553
S'hialeah, florida'
p3554
asS'corpus chr'
p3555
(lp3556
S'corpus christi, texas'
p3557
asS'bijap'
p3558
(lp3559
S'bijapur'
p3560
asS'fort wor'
p3561
(lp3562
S'fort worth, texas'
p3563
asS'sangli-miraj & kup'
p3564
(lp3565
S'sangli-miraj & kupwad'
p3566
asS'pal'
p3567
(lp3568
S'pali'
p3569
asS'pan'
p3570
(lp3571
S'panihati'
p3572
aS'panipat'
p3573
asS'arlington, te'
p3574
(lp3575
S'arlington, texas'
p3576
asS'tucson, arizo'
p3577
(lp3578
S'tucson, arizona'
p3579
asS'raichu'
p3580
(lp3581
S'raichur'
p3582
asS'varanas'
p3583
(lp3584
S'varanasi'
p3585
asS'hyder'
p3586
(lp3587
S'hyderabad'
p3588
asS'colorado springs, col'
p3589
(lp3590
S'colorado springs, colorado'
p3591
asS'ozhuk'
p3592
(lp3593
S'ozhukarai'
p3594
asS'santa ana, c'
p3595
(lp3596
S'santa ana, california'
p3597
asS'kirari su'
p3598
(lp3599
S'kirari suleman nagar'
p3600
asS'saint paul, min'
p3601
(lp3602
S'saint paul, minnesota'
p3603
asS'las vegas, nevad'
p3604
(lp3605
S'las vegas, nevada'
p3606
asS'nag'
p3607
(lp3608
S'nagpur'
p3609
asS'hubba'
p3610
(lp3611
S'hubballi-dharwad'
p3612
asS'ranch'
p3613
(lp3614
S'ranchi'
p3615
asS'oakland, cali'
p3616
(lp3617
S'oakland, california'
p3618
asS'sangli'
p3619
(lp3620
S'sangli-miraj & kupwad'
p3621
asS'na'
p3622
(lp3623
S'nagpur'
p3624
aS'nanded'
p3625
aS'nashik'
p3626
aS'nashville, tennessee'
p3627
aS'navi mumbai'
p3628
asS'fort wayn'
p3629
(lp3630
S'fort wayne, indiana'
p3631
asS'durham, north carol'
p3632
(lp3633
S'durham, north carolina'
p3634
asS'philadelphia, penn'
p3635
(lp3636
S'philadelphia, pennsylvania'
p3637
asS'visakhapa'
p3638
(lp3639
S'visakhapatnam'
p3640
asS'nashville, tenn'
p3641
(lp3642
S'nashville, tennessee'
p3643
asS'lexington,'
p3644
(lp3645
S'lexington, kentucky'
p3646
asS'raipu'
p3647
(lp3648
S'raipur'
p3649
asS'sangli-mir'
p3650
(lp3651
S'sangli-miraj & kupwad'
p3652
asS'va'
p3653
(lp3654
S'vadodara'
p3655
aS'varanasi'
p3656
aS'vasai-virar'
p3657
asS'amrit'
p3658
(lp3659
S'amritsar'
p3660
asS'begusar'
p3661
(lp3662
S'begusarai'
p3663
asS'milwaukee, wiscon'
p3664
(lp3665
S'milwaukee, wisconsin'
p3666
asS'gwal'
p3667
(lp3668
S'gwalior'
p3669
asS'san juan, puerto '
p3670
(lp3671
S'san juan, puerto rico'
p3672
asS'samba'
p3673
(lp3674
S'sambalpur'
p3675
asS'corpus chri'
p3676
(lp3677
S'corpus christi, texas'
p3678
asS'nas'
p3679
(lp3680
S'nashik'
p3681
aS'nashville, tennessee'
p3682
asS'purni'
p3683
(lp3684
S'purnia'
p3685
asS'san jose,'
p3686
(lp3687
S'san jose, california'
p3688
asS'davana'
p3689
(lp3690
S'davanagere'
p3691
asS'nizamaba'
p3692
(lp3693
S'nizamabad'
p3694
asS'pittsburgh, pennsy'
p3695
(lp3696
S'pittsburgh, pennsylvania'
p3697
asS'sacramen'
p3698
(lp3699
S'sacramento, california'
p3700
asS'riverside, californ'
p3701
(lp3702
S'riverside, california'
p3703
asS'saint pe'
p3704
(lp3705
S'saint petersburg, florida'
p3706
asS'ama'
p3707
(lp3708
S'amaravati'
p3709
asS'mor'
p3710
(lp3711
S'moradabad'
p3712
asS'amb'
p3713
(lp3714
S'ambattur'
p3715
aS'ambernath'
p3716
asS'virginia'
p3717
(lp3718
S'virginia beach, virginia'
p3719
asS'town of gilbert, arizo'
p3720
(lp3721
S'town of gilbert, arizona'
p3722
asS'rajpur'
p3723
(lp3724
S'rajpur sonarpur'
p3725
asS'tampa, flori'
p3726
(lp3727
S'tampa, florida'
p3728
asS'darb'
p3729
(lp3730
S'darbhanga'
p3731
asS'amr'
p3732
(lp3733
S'amravati'
p3734
aS'amritsar'
p3735
asS'anaheim, calif'
p3736
(lp3737
S'anaheim, california'
p3738
asS'kult'
p3739
(lp3740
S'kulti'
p3741
asS'bihar sh'
p3742
(lp3743
S'bihar sharif'
p3744
asS'san jos'
p3745
(lp3746
S'san jose, california'
p3747
asS'anchorage, al'
p3748
(lp3749
S'anchorage, alaska'
p3750
asS'jamshedpu'
p3751
(lp3752
S'jamshedpur'
p3753
asS'visakhap'
p3754
(lp3755
S'visakhapatnam'
p3756
asS'colorado springs, color'
p3757
(lp3758
S'colorado springs, colorado'
p3759
asS't'
p3760
(lp3761
S'tampa, florida'
p3762
aS'thane'
p3763
aS'thiruvananthapuram'
p3764
aS'thoothukudi'
p3765
aS'thrissur'
p3766
aS'tiruchirappalli'
p3767
aS'tirunelveli'
p3768
aS'tirupati'
p3769
aS'tiruppur'
p3770
aS'tiruvottiyur'
p3771
aS'toledo, ohio'
p3772
aS'town of gilbert, arizona'
p3773
aS'tucson, arizona'
p3774
aS'tulsa, oklahoma'
p3775
aS'tumkur'
p3776
asS'tucson, '
p3777
(lp3778
S'tucson, arizona'
p3779
asS'chula vista, califor'
p3780
(lp3781
S'chula vista, california'
p3782
asS'detr'
p3783
(lp3784
S'detroit, michigan'
p3785
asS'fremont, califo'
p3786
(lp3787
S'fremont, california'
p3788
asS'fresno, califor'
p3789
(lp3790
S'fresno, california'
p3791
asS'ichalkar'
p3792
(lp3793
S'ichalkaranji'
p3794
asS'pittsburg'
p3795
(lp3796
S'pittsburgh, pennsylvania'
p3797
asS'toledo, oh'
p3798
(lp3799
S'toledo, ohio'
p3800
asS'winston\xe2\x80\x93s'
p3801
(lp3802
S'winston\xe2\x80\x93salem, north carolina'
p3803
asS'milwaukee, wisc'
p3804
(lp3805
S'milwaukee, wisconsin'
p3806
asS'kamarh'
p3807
(lp3808
S'kamarhati'
p3809
asS'san francisco, californ'
p3810
(lp3811
S'san francisco, california'
p3812
asS'orlando, f'
p3813
(lp3814
S'orlando, florida'
p3815
asS'boston, mas'
p3816
(lp3817
S'boston, massachusetts'
p3818
asS'koll'
p3819
(lp3820
S'kollam'
p3821
asS'kolk'
p3822
(lp3823
S'kolkata'
p3824
asS'kolh'
p3825
(lp3826
S'kolhapur'
p3827
asS'aust'
p3828
(lp3829
S'austin, texas'
p3830
asS'phoenix'
p3831
(lp3832
S'phoenix, arizona'
p3833
asS'wichit'
p3834
(lp3835
S'wichita, kansas'
p3836
asS'rajpur son'
p3837
(lp3838
S'rajpur sonarpur'
p3839
asS'saint peter'
p3840
(lp3841
S'saint petersburg, florida'
p3842
asS'kakin'
p3843
(lp3844
S'kakinada'
p3845
asS'hubballi-dharwa'
p3846
(lp3847
S'hubballi-dharwad'
p3848
asS'madiso'
p3849
(lp3850
S'madison, wisconsin'
p3851
asS'shiml'
p3852
(lp3853
S'shimla'
p3854
asS'bakersfield, ca'
p3855
(lp3856
S'bakersfield, california'
p3857
asS'arlington, '
p3858
(lp3859
S'arlington, texas'
p3860
asS'las vegas, n'
p3861
(lp3862
S'las vegas, nevada'
p3863
asS'san bernar'
p3864
(lp3865
S'san bernardino, california'
p3866
asS'jacksonv'
p3867
(lp3868
S'jacksonville, florida'
p3869
asS'birmingh'
p3870
(lp3871
S'birmingham, alabama'
p3872
asS'asan'
p3873
(lp3874
S'asansol'
p3875
asS'om'
p3876
(lp3877
S'omaha, nebraska'
p3878
asS'vasai-vira'
p3879
(lp3880
S'vasai-virar'
p3881
asS'ok'
p3882
(lp3883
S'oklahoma city, oklahoma'
p3884
asS'sri'
p3885
(lp3886
S'sri ganganagar'
p3887
aS'srinagar'
p3888
asS'oa'
p3889
(lp3890
S'oakland, california'
p3891
asS'baton rouge, loui'
p3892
(lp3893
S'baton rouge, louisiana'
p3894
asS'kansas city,'
p3895
(lp3896
S'kansas city, missouri'
p3897
asS'oz'
p3898
(lp3899
S'ozhukarai'
p3900
asS'karaw'
p3901
(lp3902
S'karawal nagar'
p3903
asS'raleigh, north '
p3904
(lp3905
S'raleigh, north carolina'
p3906
asS'luck'
p3907
(lp3908
S'lucknow'
p3909
asS'or'
p3910
(lp3911
S'orlando, florida'
p3912
asS'portland, oreg'
p3913
(lp3914
S'portland, oregon'
p3915
asS'charlotte, north ca'
p3916
(lp3917
S'charlotte, north carolina'
p3918
asS'garl'
p3919
(lp3920
S'garland, texas'
p3921
asS'hubballi'
p3922
(lp3923
S'hubballi-dharwad'
p3924
asS'navi '
p3925
(lp3926
S'navi mumbai'
p3927
asS'boston, massachuse'
p3928
(lp3929
S'boston, massachusetts'
p3930
asS'st.'
p3931
(lp3932
S'st. louis, missouri'
p3933
asS'indor'
p3934
(lp3935
S'indore'
p3936
asS'minneapoli'
p3937
(lp3938
S'minneapolis, minnesota'
p3939
asS'charlo'
p3940
(lp3941
S'charlotte, north carolina'
p3942
asS'farrukha'
p3943
(lp3944
S'farrukhabad'
p3945
asS'pittsburgh, pennsylv'
p3946
(lp3947
S'pittsburgh, pennsylvania'
p3948
asS'lon'
p3949
(lp3950
S'long beach, california'
p3951
aS'loni'
p3952
asS'philadelphia'
p3953
(lp3954
S'philadelphia, pennsylvania'
p3955
asS'los'
p3956
(lp3957
S'los angeles, california'
p3958
asS'lou'
p3959
(lp3960
S'louisville, kentucky'
p3961
asS'muzaffar'
p3962
(lp3963
S'muzaffarnagar'
p3964
aS'muzaffarpur'
p3965
asS'farid'
p3966
(lp3967
S'faridabad'
p3968
asS'hen'
p3969
(lp3970
S'henderson, nevada'
p3971
asS'kolla'
p3972
(lp3973
S'kollam'
p3974
asS'rourkel'
p3975
(lp3976
S'rourkela'
p3977
aS'rourkela'
p3978
asS'indianap'
p3979
(lp3980
S'indianapolis, indiana'
p3981
asS'las vega'
p3982
(lp3983
S'las vegas, nevada'
p3984
asS'jun'
p3985
(lp3986
S'junagadh'
p3987
asS'bakersfiel'
p3988
(lp3989
S'bakersfield, california'
p3990
asS'gora'
p3991
(lp3992
S'gorakhpur'
p3993
asS'hubbal'
p3994
(lp3995
S'hubballi-dharwad'
p3996
asS'minneapolis, minnes'
p3997
(lp3998
S'minneapolis, minnesota'
p3999
asS'san jose, califo'
p4000
(lp4001
S'san jose, california'
p4002
asS'bhiwa'
p4003
(lp4004
S'bhiwandi'
p4005
asS'minne'
p4006
(lp4007
S'minneapolis, minnesota'
p4008
asS'bhagalp'
p4009
(lp4010
S'bhagalpur'
p4011
asS'madison,'
p4012
(lp4013
S'madison, wisconsin'
p4014
asS'st. louis, mis'
p4015
(lp4016
S'st. louis, missouri'
p4017
asS'indianapolis, indi'
p4018
(lp4019
S'indianapolis, indiana'
p4020
asS'fremont, californi'
p4021
(lp4022
S'fremont, california'
p4023
asS'madis'
p4024
(lp4025
S'madison, wisconsin'
p4026
asS'tumk'
p4027
(lp4028
S'tumkur'
p4029
asS'glenda'
p4030
(lp4031
S'glendale, arizona'
p4032
asS'maheshta'
p4033
(lp4034
S'maheshtala'
p4035
asS'jamnaga'
p4036
(lp4037
S'jamnagar'
p4038
asS'ad'
p4039
(lp4040
S'adilabad'
p4041
asS'ag'
p4042
(lp4043
S'agartala'
p4044
aS'agra'
p4045
asS'ai'
p4046
(lp4047
S'aizawl'
p4048
asS'ah'
p4049
(lp4050
S'ahmedabad'
p4051
aS'ahmednagar'
p4052
asS'ak'
p4053
(lp4054
S'akola'
p4055
asS'aj'
p4056
(lp4057
S'ajmer'
p4058
asS'am'
p4059
(lp4060
S'amaravati'
p4061
aS'ambattur'
p4062
aS'ambernath'
p4063
aS'amravati'
p4064
aS'amritsar'
p4065
asS'al'
p4066
(lp4067
S'albuquerque, new mexico'
p4068
aS'aligarh'
p4069
aS'allahabad'
p4070
aS'alwar'
p4071
asS'minneapolis'
p4072
(lp4073
S'minneapolis, minnesota'
p4074
asS'an'
p4075
(lp4076
S'anaheim, california'
p4077
aS'anchorage, alaska'
p4078
asS'hialeah, fl'
p4079
(lp4080
S'hialeah, florida'
p4081
asS'firozaba'
p4082
(lp4083
S'firozabad'
p4084
asS'ar'
p4085
(lp4086
S'arlington, texas'
p4087
aS'arrah'
p4088
asS'au'
p4089
(lp4090
S'aurangabad'
p4091
aS'aurora, colorado'
p4092
aS'austin, texas'
p4093
asS'at'
p4094
(lp4095
S'atlanta, georgia'
p4096
asS'ujjai'
p4097
(lp4098
S'ujjain'
p4099
asS'av'
p4100
(lp4101
S'avadi'
p4102
asS'cincinna'
p4103
(lp4104
S'cincinnati, ohio'
p4105
asS'adilab'
p4106
(lp4107
S'adilabad'
p4108
asS'tucson, arizon'
p4109
(lp4110
S'tucson, arizona'
p4111
asS'winston\xe2\x80\x93sale'
p4112
(lp4113
S'winston\xe2\x80\x93salem, north carolina'
p4114
asS'atlanta, georg'
p4115
(lp4116
S'atlanta, georgia'
p4117
asS'riverside, '
p4118
(lp4119
S'riverside, california'
p4120
asS'jacksonvill'
p4121
(lp4122
S'jacksonville, florida'
p4123
asS'baton rouge, louisia'
p4124
(lp4125
S'baton rouge, louisiana'
p4126
asS'bardha'
p4127
(lp4128
S'bardhaman'
p4129
asS'town of gilbert, '
p4130
(lp4131
S'town of gilbert, arizona'
p4132
asS'madura'
p4133
(lp4134
S'madurai'
p4135
asS'etawa'
p4136
(lp4137
S'etawah'
p4138
asS'washington, district of columb'
p4139
(lp4140
S'washington, district of columbia'
p4141
asS'stockt'
p4142
(lp4143
S'stockton, california'
p4144
asS'aurora, colorad'
p4145
(lp4146
S'aurora, colorado'
p4147
asS'nashville, ten'
p4148
(lp4149
S'nashville, tennessee'
p4150
asS'st. louis, '
p4151
(lp4152
S'st. louis, missouri'
p4153
asS'seattle,'
p4154
(lp4155
S'seattle, washington'
p4156
asS'u'
p4157
(lp4158
S'udaipur'
p4159
aS'ujjain'
p4160
aS'ulhasnagar'
p4161
asS'jabalpu'
p4162
(lp4163
S'jabalpur'
p4164
asS'san francisco, calif'
p4165
(lp4166
S'san francisco, california'
p4167
asS'roh'
p4168
(lp4169
S'rohtak'
p4170
asS'all'
p4171
(lp4172
S'allahabad'
p4173
asS'new y'
p4174
(lp4175
S'new york, new york'
p4176
asS'ali'
p4177
(lp4178
S'aligarh'
p4179
asS'alb'
p4180
(lp4181
S'albuquerque, new mexico'
p4182
asS'newark, '
p4183
(lp4184
S'newark, new jersey'
p4185
asS'durham, north caroli'
p4186
(lp4187
S'durham, north carolina'
p4188
asS'atlant'
p4189
(lp4190
S'atlanta, georgia'
p4191
asS'riverside, cal'
p4192
(lp4193
S'riverside, california'
p4194
asS'alw'
p4195
(lp4196
S'alwar'
p4197
asS'rourke'
p4198
(lp4199
S'rourkela'
p4200
aS'rourkela'
p4201
asS'washington, district of c'
p4202
(lp4203
S'washington, district of columbia'
p4204
asS'chesapeak'
p4205
(lp4206
S'chesapeake, virginia'
p4207
asS'north '
p4208
(lp4209
S'north dumdum'
p4210
aS'north las vegas, nevada'
p4211
asS'berhampu'
p4212
(lp4213
S'berhampur'
p4214
asS'nort'
p4215
(lp4216
S'north dumdum'
p4217
aS'north las vegas, nevada'
p4218
asS'tu'
p4219
(lp4220
S'tucson, arizona'
p4221
aS'tulsa, oklahoma'
p4222
aS'tumkur'
p4223
asS'to'
p4224
(lp4225
S'toledo, ohio'
p4226
aS'town of gilbert, arizona'
p4227
asS'jersey c'
p4228
(lp4229
S'jersey city, new jersey'
p4230
asS'thrissu'
p4231
(lp4232
S'thrissur'
p4233
asS'norf'
p4234
(lp4235
S'norfolk, virginia'
p4236
asS'san '
p4237
(lp4238
S'san antonio, texas'
p4239
aS'san bernardino, california'
p4240
aS'san diego, california'
p4241
aS'san francisco, california'
p4242
aS'san jose, california'
p4243
aS'san juan, puerto rico'
p4244
asS'ti'
p4245
(lp4246
S'tiruchirappalli'
p4247
aS'tirunelveli'
p4248
aS'tirupati'
p4249
aS'tiruppur'
p4250
aS'tiruvottiyur'
p4251
asS'ra'
p4252
(lp4253
S'raichur'
p4254
aS'raipur'
p4255
aS'rajahmundry'
p4256
aS'rajkot'
p4257
aS'rajpur sonarpur'
p4258
aS'raleigh, north carolina'
p4259
aS'ramagundam'
p4260
aS'rampur'
p4261
aS'ranchi'
p4262
aS'ratlam'
p4263
asS'baton rouge, lo'
p4264
(lp4265
S'baton rouge, louisiana'
p4266
asS'honolu'
p4267
(lp4268
S'honolulu cdp, hawaii'
p4269
asS'anaheim, c'
p4270
(lp4271
S'anaheim, california'
p4272
asS'ahme'
p4273
(lp4274
S'ahmedabad'
p4275
aS'ahmednagar'
p4276
asS'far'
p4277
(lp4278
S'faridabad'
p4279
aS'farrukhabad'
p4280
asS'soni'
p4281
(lp4282
S'sonipat'
p4283
asS'san bernardino, cal'
p4284
(lp4285
S'san bernardino, california'
p4286
asS'san an'
p4287
(lp4288
S'san antonio, texas'
p4289
asS'baton'
p4290
(lp4291
S'baton rouge, louisiana'
p4292
asS'los angele'
p4293
(lp4294
S'los angeles, california'
p4295
asS'newark, new jers'
p4296
(lp4297
S'newark, new jersey'
p4298
asS'aligar'
p4299
(lp4300
S'aligarh'
p4301
asS'jaln'
p4302
(lp4303
S'jalna'
p4304
asS'santa an'
p4305
(lp4306
S'santa ana, california'
p4307
asS'los angel'
p4308
(lp4309
S'los angeles, california'
p4310
asS'sant'
p4311
(lp4312
S'santa ana, california'
p4313
asS'hyd'
p4314
(lp4315
S'hyderabad'
p4316
asS'kati'
p4317
(lp4318
S'katihar'
p4319
asS'fresno,'
p4320
(lp4321
S'fresno, california'
p4322
asS'louis'
p4323
(lp4324
S'louisville, kentucky'
p4325
asS'hender'
p4326
(lp4327
S'henderson, nevada'
p4328
asS'ri'
p4329
(lp4330
S'riverside, california'
p4331
asS'sang'
p4332
(lp4333
S'sangli-miraj & kupwad'
p4334
asS'saint petersburg, flo'
p4335
(lp4336
S'saint petersburg, florida'
p4337
asS'oklahoma city, '
p4338
(lp4339
S'oklahoma city, oklahoma'
p4340
asS'oakland, califor'
p4341
(lp4342
S'oakland, california'
p4343
asS'glendale, ar'
p4344
(lp4345
S'glendale, arizona'
p4346
asS'milwaukee, wisco'
p4347
(lp4348
S'milwaukee, wisconsin'
p4349
asS'anah'
p4350
(lp4351
S'anaheim, california'
p4352
asS'san antonio,'
p4353
(lp4354
S'san antonio, texas'
p4355
asS'gand'
p4356
(lp4357
S'gandhidham'
p4358
aS'gandhinagar'
p4359
asS'vasai'
p4360
(lp4361
S'vasai-virar'
p4362
asS'ahmednaga'
p4363
(lp4364
S'ahmednagar'
p4365
asS'indianapolis, i'
p4366
(lp4367
S'indianapolis, indiana'
p4368
asS'corpus '
p4369
(lp4370
S'corpus christi, texas'
p4371
asS'puducher'
p4372
(lp4373
S'puducherry'
p4374
asS'saint paul,'
p4375
(lp4376
S'saint paul, minnesota'
p4377
asS'bhubanes'
p4378
(lp4379
S'bhubaneswar'
p4380
asS'ratl'
p4381
(lp4382
S'ratlam'
p4383
asS'orlando, flori'
p4384
(lp4385
S'orlando, florida'
p4386
asS'st. louis, misso'
p4387
(lp4388
S'st. louis, missouri'
p4389
asS'karna'
p4390
(lp4391
S'karnal'
p4392
asS'miami,'
p4393
(lp4394
S'miami, florida'
p4395
asS'puducherr'
p4396
(lp4397
S'puducherry'
p4398
asS'new york, new yor'
p4399
(lp4400
S'new york, new york'
p4401
asS'baton rouge, lou'
p4402
(lp4403
S'baton rouge, louisiana'
p4404
asS'baltimore, maryla'
p4405
(lp4406
S'baltimore, maryland'
p4407
asS'jaipu'
p4408
(lp4409
S'jaipur'
p4410
asS'san francisco,'
p4411
(lp4412
S'san francisco, california'
p4413
asS'arlin'
p4414
(lp4415
S'arlington, texas'
p4416
asS'gunt'
p4417
(lp4418
S'guntur'
p4419
asS'washington, district of '
p4420
(lp4421
S'washington, district of columbia'
p4422
asS'sacramento, califor'
p4423
(lp4424
S'sacramento, california'
p4425
asS'pittsburgh, penn'
p4426
(lp4427
S'pittsburgh, pennsylvania'
p4428
asS'saint paul, minne'
p4429
(lp4430
S'saint paul, minnesota'
p4431
asS'sangli-miraj '
p4432
(lp4433
S'sangli-miraj & kupwad'
p4434
asS'baltimore, m'
p4435
(lp4436
S'baltimore, maryland'
p4437
asS'louisvi'
p4438
(lp4439
S'louisville, kentucky'
p4440
asS'santa ana, cali'
p4441
(lp4442
S'santa ana, california'
p4443
asS'baton rou'
p4444
(lp4445
S'baton rouge, louisiana'
p4446
asS'chittoo'
p4447
(lp4448
S'chittoor'
p4449
asS'ujja'
p4450
(lp4451
S'ujjain'
p4452
asS'agarta'
p4453
(lp4454
S'agartala'
p4455
asS'navi m'
p4456
(lp4457
S'navi mumbai'
p4458
asS'pittsburgh, p'
p4459
(lp4460
S'pittsburgh, pennsylvania'
p4461
asS'rajahmun'
p4462
(lp4463
S'rajahmundry'
p4464
asS'mirzapu'
p4465
(lp4466
S'mirzapur'
p4467
asS'pittsburgh, pen'
p4468
(lp4469
S'pittsburgh, pennsylvania'
p4470
asS'long beac'
p4471
(lp4472
S'long beach, california'
p4473
asS'riverside,'
p4474
(lp4475
S'riverside, california'
p4476
asS'honolul'
p4477
(lp4478
S'honolulu cdp, hawaii'
p4479
asS'san diego, californi'
p4480
(lp4481
S'san diego, california'
p4482
asS'dhul'
p4483
(lp4484
S'dhule'
p4485
asS'san antonio, '
p4486
(lp4487
S'san antonio, texas'
p4488
asS'vij'
p4489
(lp4490
S'vijayanagaram'
p4491
aS'vijayawada'
p4492
asS'virgini'
p4493
(lp4494
S'virginia beach, virginia'
p4495
asS'riverside, calif'
p4496
(lp4497
S'riverside, california'
p4498
asS'vir'
p4499
(lp4500
S'virginia beach, virginia'
p4501
asS'vis'
p4502
(lp4503
S'visakhapatnam'
p4504
asS'sacramento,'
p4505
(lp4506
S'sacramento, california'
p4507
asS'auranga'
p4508
(lp4509
S'aurangabad'
p4510
asS'atlanta, '
p4511
(lp4512
S'atlanta, georgia'
p4513
asS'aurangaba'
p4514
(lp4515
S'aurangabad'
p4516
asS'firoza'
p4517
(lp4518
S'firozabad'
p4519
asS'ulhas'
p4520
(lp4521
S'ulhasnagar'
p4522
asS'nande'
p4523
(lp4524
S'nanded'
p4525
asS'kham'
p4526
(lp4527
S'khammam'
p4528
asS'atlanta, geo'
p4529
(lp4530
S'atlanta, georgia'
p4531
asS'lexingt'
p4532
(lp4533
S'lexington, kentucky'
p4534
asS'vasai-vi'
p4535
(lp4536
S'vasai-virar'
p4537
asS'fort wayne, indian'
p4538
(lp4539
S'fort wayne, indiana'
p4540
asS'jacksonville, '
p4541
(lp4542
S'jacksonville, florida'
p4543
asS'pur'
p4544
(lp4545
S'purnia'
p4546
asS'vi'
p4547
(lp4548
S'vijayanagaram'
p4549
aS'vijayawada'
p4550
aS'virginia beach, virginia'
p4551
aS'visakhapatnam'
p4552
asS'washington, district of'
p4553
(lp4554
S'washington, district of columbia'
p4555
asS'mora'
p4556
(lp4557
S'moradabad'
p4558
asS'chula vista'
p4559
(lp4560
S'chula vista, california'
p4561
asS'oakland, '
p4562
(lp4563
S'oakland, california'
p4564
asS'udaipu'
p4565
(lp4566
S'udaipur'
p4567
asS'mesa, ariz'
p4568
(lp4569
S'mesa, arizona'
p4570
asS'anchorage, a'
p4571
(lp4572
S'anchorage, alaska'
p4573
asS'aiza'
p4574
(lp4575
S'aizawl'
p4576
asS'mahe'
p4577
(lp4578
S'maheshtala'
p4579
asS'mira'
p4580
(lp4581
S'mira-bhayandar'
p4582
asS'town of gilbert, ar'
p4583
(lp4584
S'town of gilbert, arizona'
p4585
asS'vijayanaga'
p4586
(lp4587
S'vijayanagaram'
p4588
asS'mirz'
p4589
(lp4590
S'mirzapur'
p4591
asS'lincoln, n'
p4592
(lp4593
S'lincoln, nebraska'
p4594
asS'town'
p4595
(lp4596
S'town of gilbert, arizona'
p4597
asS'muza'
p4598
(lp4599
S'muzaffarnagar'
p4600
aS'muzaffarpur'
p4601
asS'amri'
p4602
(lp4603
S'amritsar'
p4604
asS'hous'
p4605
(lp4606
S'houston, texas'
p4607
asS'det'
p4608
(lp4609
S'detroit, michigan'
p4610
asS'amra'
p4611
(lp4612
S'amravati'
p4613
asS'dew'
p4614
(lp4615
S'dewas'
p4616
asS'deh'
p4617
(lp4618
S'dehradun'
p4619
asS'long beach'
p4620
(lp4621
S'long beach, california'
p4622
asS'del'
p4623
(lp4624
S'delhi'
p4625
asS'glendale,'
p4626
(lp4627
S'glendale, arizona'
p4628
asS'den'
p4629
(lp4630
S'denver, colorado'
p4631
asS'v'
p4632
(lp4633
S'vadodara'
p4634
aS'varanasi'
p4635
aS'vasai-virar'
p4636
aS'vijayanagaram'
p4637
aS'vijayawada'
p4638
aS'virginia beach, virginia'
p4639
aS'visakhapatnam'
p4640
asS'fort worth, t'
p4641
(lp4642
S'fort worth, texas'
p4643
asS'milwau'
p4644
(lp4645
S'milwaukee, wisconsin'
p4646
asS'austin, texa'
p4647
(lp4648
S'austin, texas'
p4649
asS'male'
p4650
(lp4651
S'malegaon'
p4652
asS'columbus, '
p4653
(lp4654
S'columbus, ohio'
p4655
asS'visakhapatn'
p4656
(lp4657
S'visakhapatnam'
p4658
asS'srinag'
p4659
(lp4660
S'srinagar'
p4661
asS'ludh'
p4662
(lp4663
S'ludhiana'
p4664
asS'long beach, c'
p4665
(lp4666
S'long beach, california'
p4667
asS'san diego, cali'
p4668
(lp4669
S'san diego, california'
p4670
asS'ahmeda'
p4671
(lp4672
S'ahmedabad'
p4673
asS'san francisco, c'
p4674
(lp4675
S'san francisco, california'
p4676
asS'sika'
p4677
(lp4678
S'sikar'
p4679
asS'omaha, nebras'
p4680
(lp4681
S'omaha, nebraska'
p4682
asS'saint petersbu'
p4683
(lp4684
S'saint petersburg, florida'
p4685
asS'albu'
p4686
(lp4687
S'albuquerque, new mexico'
p4688
asS'ahmedn'
p4689
(lp4690
S'ahmednagar'
p4691
asS'lincoln, '
p4692
(lp4693
S'lincoln, nebraska'
p4694
asS'phoenix, ariz'
p4695
(lp4696
S'phoenix, arizona'
p4697
asS'tiruvo'
p4698
(lp4699
S'tiruvottiyur'
p4700
asS'san antoni'
p4701
(lp4702
S'san antonio, texas'
p4703
asS'ahmednag'
p4704
(lp4705
S'ahmednagar'
p4706
asS'mira-'
p4707
(lp4708
S'mira-bhayandar'
p4709
asS'fr'
p4710
(lp4711
S'fremont, california'
p4712
aS'fresno, california'
p4713
asS'chicago,'
p4714
(lp4715
S'chicago, illinois'
p4716
asS'w'
p4717
(lp4718
S'warangal'
p4719
aS'washington, district of columbia'
p4720
aS'wichita, kansas'
p4721
aS'winston\xe2\x80\x93salem, north carolina'
p4722
asS'hydera'
p4723
(lp4724
S'hyderabad'
p4725
asS'arling'
p4726
(lp4727
S'arlington, texas'
p4728
asS'santa'
p4729
(lp4730
S'santa ana, california'
p4731
asS'fa'
p4732
(lp4733
S'faridabad'
p4734
aS'farrukhabad'
p4735
asS'boston, massach'
p4736
(lp4737
S'boston, massachusetts'
p4738
asS'haridw'
p4739
(lp4740
S'haridwar'
p4741
asS'fi'
p4742
(lp4743
S'firozabad'
p4744
asS'los ange'
p4745
(lp4746
S'los angeles, california'
p4747
asS'ludhi'
p4748
(lp4749
S'ludhiana'
p4750
asS'jalgao'
p4751
(lp4752
S'jalgaon'
p4753
asS'fo'
p4754
(lp4755
S'fort wayne, indiana'
p4756
aS'fort worth, texas'
p4757
asS'a'
p4758
(lp4759
S'adilabad'
p4760
aS'agartala'
p4761
aS'agra'
p4762
aS'ahmedabad'
p4763
aS'ahmednagar'
p4764
aS'aizawl'
p4765
aS'ajmer'
p4766
aS'akola'
p4767
aS'albuquerque, new mexico'
p4768
aS'aligarh'
p4769
aS'allahabad'
p4770
aS'alwar'
p4771
aS'amaravati'
p4772
aS'ambattur'
p4773
aS'ambernath'
p4774
aS'amravati'
p4775
aS'amritsar'
p4776
aS'anaheim, california'
p4777
aS'anchorage, alaska'
p4778
aS'arlington, texas'
p4779
aS'arrah'
p4780
aS'asansol'
p4781
aS'atlanta, georgia'
p4782
aS'aurangabad'
p4783
aS'aurora, colorado'
p4784
aS'austin, texas'
p4785
aS'avadi'
p4786
asS'boston, massa'
p4787
(lp4788
S'boston, massachusetts'
p4789
asS'nashville, te'
p4790
(lp4791
S'nashville, tennessee'
p4792
asS'chula vista, califo'
p4793
(lp4794
S'chula vista, california'
p4795
asS'orlando, '
p4796
(lp4797
S'orlando, florida'
p4798
asS'varana'
p4799
(lp4800
S'varanasi'
p4801
asS'corpus christi, tex'
p4802
(lp4803
S'corpus christi, texas'
p4804
asS'riverside, cali'
p4805
(lp4806
S'riverside, california'
p4807
asS'chula vista, cali'
p4808
(lp4809
S'chula vista, california'
p4810
asS'ahmedna'
p4811
(lp4812
S'ahmednagar'
p4813
asS'rajko'
p4814
(lp4815
S'rajkot'
p4816
asS'bhuban'
p4817
(lp4818
S'bhubaneswar'
p4819
asS'indianapolis, in'
p4820
(lp4821
S'indianapolis, indiana'
p4822
asS'durham, north'
p4823
(lp4824
S'durham, north carolina'
p4825
asS'henderson,'
p4826
(lp4827
S'henderson, nevada'
p4828
asS'milwaukee, wis'
p4829
(lp4830
S'milwaukee, wisconsin'
p4831
asS'winston\xe2\x80\x93salem, north car'
p4832
(lp4833
S'winston\xe2\x80\x93salem, north carolina'
p4834
asS'erod'
p4835
(lp4836
S'erode'
p4837
asS'washington, district of columbi'
p4838
(lp4839
S'washington, district of columbia'
p4840
asS'chesapeake, virgi'
p4841
(lp4842
S'chesapeake, virginia'
p4843
asS'jersey city, new je'
p4844
(lp4845
S'jersey city, new jersey'
p4846
asS'scott'
p4847
(lp4848
S'scottsdale, arizona'
p4849
asS'jacksonville, flori'
p4850
(lp4851
S'jacksonville, florida'
p4852
asS'milwaukee'
p4853
(lp4854
S'milwaukee, wisconsin'
p4855
asS'pani'
p4856
(lp4857
S'panihati'
p4858
aS'panipat'
p4859
asS'latu'
p4860
(lp4861
S'latur'
p4862
asS'bokar'
p4863
(lp4864
S'bokaro'
p4865
asS'alla'
p4866
(lp4867
S'allahabad'
p4868
asS'kirari suleman n'
p4869
(lp4870
S'kirari suleman nagar'
p4871
asS'riverside, califo'
p4872
(lp4873
S'riverside, california'
p4874
asS'vijayaw'
p4875
(lp4876
S'vijayawada'
p4877
asS'scot'
p4878
(lp4879
S'scottsdale, arizona'
p4880
asS'kalyan-d'
p4881
(lp4882
S'kalyan-dombivali'
p4883
asS'corpus ch'
p4884
(lp4885
S'corpus christi, texas'
p4886
asS'san jose, cal'
p4887
(lp4888
S'san jose, california'
p4889
asS'darbhang'
p4890
(lp4891
S'darbhanga'
p4892
asS'scottsdale, '
p4893
(lp4894
S'scottsdale, arizona'
p4895
asS'barasa'
p4896
(lp4897
S'barasat'
p4898
asS'milwauk'
p4899
(lp4900
S'milwaukee, wisconsin'
p4901
asS'fremon'
p4902
(lp4903
S'fremont, california'
p4904
asS'karawal'
p4905
(lp4906
S'karawal nagar'
p4907
asS'raleig'
p4908
(lp4909
S'raleigh, north carolina'
p4910
asS'colorado springs, colorad'
p4911
(lp4912
S'colorado springs, colorado'
p4913
asS'mesa, ar'
p4914
(lp4915
S'mesa, arizona'
p4916
asS'okl'
p4917
(lp4918
S'oklahoma city, oklahoma'
p4919
asS'sacramento, cali'
p4920
(lp4921
S'sacramento, california'
p4922
asS'maleg'
p4923
(lp4924
S'malegaon'
p4925
asS'portl'
p4926
(lp4927
S'portland, oregon'
p4928
asS'war'
p4929
(lp4930
S'warangal'
p4931
asS'las vegas, nev'
p4932
(lp4933
S'las vegas, nevada'
p4934
asS'irvine, cali'
p4935
(lp4936
S'irvine, california'
p4937
asS'chandra'
p4938
(lp4939
S'chandrapur'
p4940
asS'corpus chris'
p4941
(lp4942
S'corpus christi, texas'
p4943
asS'town of gilbert, arizon'
p4944
(lp4945
S'town of gilbert, arizona'
p4946
asS'toledo, '
p4947
(lp4948
S'toledo, ohio'
p4949
asS'seattle, washi'
p4950
(lp4951
S'seattle, washington'
p4952
asS'aurora, co'
p4953
(lp4954
S'aurora, colorado'
p4955
asS'nashi'
p4956
(lp4957
S'nashik'
p4958
asS'hari'
p4959
(lp4960
S'haridwar'
p4961
asS'p'
p4962
(lp4963
S'pali'
p4964
aS'panihati'
p4965
aS'panipat'
p4966
aS'parbhani'
p4967
aS'patiala'
p4968
aS'patna'
p4969
aS'philadelphia, pennsylvania'
p4970
aS'phoenix, arizona'
p4971
aS'pimpri-chinchwad'
p4972
aS'pittsburgh, pennsylvania'
p4973
aS'plano, texas'
p4974
aS'portland, oregon'
p4975
aS'puducherry'
p4976
aS'pune'
p4977
aS'purnia'
p4978
asS'aurora, color'
p4979
(lp4980
S'aurora, colorado'
p4981
asS'miami, f'
p4982
(lp4983
S'miami, florida'
p4984
asS'st. louis, m'
p4985
(lp4986
S'st. louis, missouri'
p4987
asS'muzaffarnaga'
p4988
(lp4989
S'muzaffarnagar'
p4990
asS'wichita, kansa'
p4991
(lp4992
S'wichita, kansas'
p4993
asS'mumb'
p4994
(lp4995
S'mumbai'
p4996
asS'houst'
p4997
(lp4998
S'houston, texas'
p4999
asS'portland'
p5000
(lp5001
S'portland, oregon'
p5002
asS'kansa'
p5003
(lp5004
S'kansas city, missouri'
p5005
asS'etaw'
p5006
(lp5007
S'etawah'
p5008
asS'virginia beach, vir'
p5009
(lp5010
S'virginia beach, virginia'
p5011
asS'houston, texa'
p5012
(lp5013
S'houston, texas'
p5014
asS'san jose, ca'
p5015
(lp5016
S'san jose, california'
p5017
asS'myso'
p5018
(lp5019
S'mysore'
p5020
asS'anaheim, ca'
p5021
(lp5022
S'anaheim, california'
p5023
asS'bihar'
p5024
(lp5025
S'bihar sharif'
p5026
asS'shahjahanpu'
p5027
(lp5028
S'shahjahanpur'
p5029
asS'albuquerque, new mex'
p5030
(lp5031
S'albuquerque, new mexico'
p5032
asS'norfolk, virg'
p5033
(lp5034
S'norfolk, virginia'
p5035
asS'amberna'
p5036
(lp5037
S'ambernath'
p5038
asS'pud'
p5039
(lp5040
S'puducherry'
p5041
asS'asa'
p5042
(lp5043
S'asansol'
p5044
asS'mathu'
p5045
(lp5046
S'mathura'
p5047
asS'san jua'
p5048
(lp5049
S'san juan, puerto rico'
p5050
asS'nashville,'
p5051
(lp5052
S'nashville, tennessee'
p5053
asS'irving, tex'
p5054
(lp5055
S'irving, texas'
p5056
asS'el paso, tex'
p5057
(lp5058
S'el paso, texas'
p5059
asS'miami, '
p5060
(lp5061
S'miami, florida'
p5062
asS'san bernard'
p5063
(lp5064
S'san bernardino, california'
p5065
asS'sangli-miraj & ku'
p5066
(lp5067
S'sangli-miraj & kupwad'
p5068
asS'louisville, kentuc'
p5069
(lp5070
S'louisville, kentucky'
p5071
asS'corpus christi, t'
p5072
(lp5073
S'corpus christi, texas'
p5074
asS'phoenix, ar'
p5075
(lp5076
S'phoenix, arizona'
p5077
asS'san juan, puerto ric'
p5078
(lp5079
S'san juan, puerto rico'
p5080
asS'raleigh'
p5081
(lp5082
S'raleigh, north carolina'
p5083
asS'seattle, washing'
p5084
(lp5085
S'seattle, washington'
p5086
asS'irvi'
p5087
(lp5088
S'irvine, california'
p5089
aS'irving, texas'
p5090
asS'saint pa'
p5091
(lp5092
S'saint paul, minnesota'
p5093
asS'bhag'
p5094
(lp5095
S'bhagalpur'
p5096
asS'durham, no'
p5097
(lp5098
S'durham, north carolina'
p5099
asS'indianapolis,'
p5100
(lp5101
S'indianapolis, indiana'
p5102
asS'bhat'
p5103
(lp5104
S'bhatpara'
p5105
asS'bhav'
p5106
(lp5107
S'bhavnagar'
p5108
asS'bhar'
p5109
(lp5110
S'bharatpur'
p5111
asS'jer'
p5112
(lp5113
S'jersey city, new jersey'
p5114
asS'kol'
p5115
(lp5116
S'kolhapur'
p5117
aS'kolkata'
p5118
aS'kollam'
p5119
asS'north las vegas,'
p5120
(lp5121
S'north las vegas, nevada'
p5122
asS'arlington'
p5123
(lp5124
S'arlington, texas'
p5125
asS'koc'
p5126
(lp5127
S'kochi'
p5128
asS'winston\xe2\x80\x93salem, north'
p5129
(lp5130
S'winston\xe2\x80\x93salem, north carolina'
p5131
asS'bikan'
p5132
(lp5133
S'bikaner'
p5134
asS'cuttac'
p5135
(lp5136
S'cuttack'
p5137
asS'koz'
p5138
(lp5139
S'kozhikode'
p5140
asS'jabalp'
p5141
(lp5142
S'jabalpur'
p5143
asS'saint'
p5144
(lp5145
S'saint paul, minnesota'
p5146
aS'saint petersburg, florida'
p5147
asS'kor'
p5148
(lp5149
S'korba'
p5150
asS'kot'
p5151
(lp5152
S'kota'
p5153
asS'chesapeake, virg'
p5154
(lp5155
S'chesapeake, virginia'
p5156
asS'parb'
p5157
(lp5158
S'parbhani'
p5159
asS'los angeles, californ'
p5160
(lp5161
S'los angeles, california'
p5162
asS'lincoln, ne'
p5163
(lp5164
S'lincoln, nebraska'
p5165
asS'new orlean'
p5166
(lp5167
S'new orleans, louisiana'
p5168
asS'denver, color'
p5169
(lp5170
S'denver, colorado'
p5171
asS'fort way'
p5172
(lp5173
S'fort wayne, indiana'
p5174
asS'rivers'
p5175
(lp5176
S'riverside, california'
p5177
asS'st. lo'
p5178
(lp5179
S'st. louis, missouri'
p5180
asS'bilaspu'
p5181
(lp5182
S'bilaspur'
p5183
asS'allahaba'
p5184
(lp5185
S'allahabad'
p5186
asS'thoothuku'
p5187
(lp5188
S'thoothukudi'
p5189
asS'b'
p5190
(lp5191
S'bakersfield, california'
p5192
aS'bally'
p5193
aS'baltimore, maryland'
p5194
aS'bangalore'
p5195
aS'baranagar'
p5196
aS'barasat'
p5197
aS'bardhaman'
p5198
aS'bareilly'
p5199
aS'bathinda'
p5200
aS'baton rouge, louisiana'
p5201
aS'begusarai'
p5202
aS'belgaum'
p5203
aS'bellary'
p5204
aS'berhampur'
p5205
aS'bhagalpur'
p5206
aS'bharatpur'
p5207
aS'bhatpara'
p5208
aS'bhavnagar'
p5209
aS'bhilai'
p5210
aS'bhilwara'
p5211
aS'bhiwandi'
p5212
aS'bhopal'
p5213
aS'bhubaneswar'
p5214
aS'bihar sharif'
p5215
aS'bijapur'
p5216
aS'bikaner'
p5217
aS'bilaspur'
p5218
aS'birmingham, alabama'
p5219
aS'bokaro'
p5220
aS'boston, massachusetts'
p5221
aS'buffalo, new york'
p5222
asS'virginia beach, vi'
p5223
(lp5224
S'virginia beach, virginia'
p5225
asS'saint petersburg, flor'
p5226
(lp5227
S'saint petersburg, florida'
p5228
asS'sto'
p5229
(lp5230
S'stockton, california'
p5231
asS'oklahoma city, okl'
p5232
(lp5233
S'oklahoma city, oklahoma'
p5234
asS'charlot'
p5235
(lp5236
S'charlotte, north carolina'
p5237
asS'las v'
p5238
(lp5239
S'las vegas, nevada'
p5240
asS'gree'
p5241
(lp5242
S'greensboro, north carolina'
p5243
asS'thiruvanantha'
p5244
(lp5245
S'thiruvananthapuram'
p5246
asS'lincoln, nebras'
p5247
(lp5248
S'lincoln, nebraska'
p5249
asS'bhi'
p5250
(lp5251
S'bhilai'
p5252
aS'bhilwara'
p5253
aS'bhiwandi'
p5254
asS'charlotte'
p5255
(lp5256
S'charlotte, north carolina'
p5257
asS'bho'
p5258
(lp5259
S'bhopal'
p5260
asS'bha'
p5261
(lp5262
S'bhagalpur'
p5263
aS'bharatpur'
p5264
aS'bhatpara'
p5265
aS'bhavnagar'
p5266
asS'omaha,'
p5267
(lp5268
S'omaha, nebraska'
p5269
asS'raleigh, n'
p5270
(lp5271
S'raleigh, north carolina'
p5272
asS'north las vegas, '
p5273
(lp5274
S'north las vegas, nevada'
p5275
asS'kara'
p5276
(lp5277
S'karawal nagar'
p5278
asS'virginia beach, virg'
p5279
(lp5280
S'virginia beach, virginia'
p5281
asS'chula vis'
p5282
(lp5283
S'chula vista, california'
p5284
asS'kari'
p5285
(lp5286
S'karimnagar'
p5287
asS'karn'
p5288
(lp5289
S'karnal'
p5290
asS'begus'
p5291
(lp5292
S'begusarai'
p5293
asS'madison, wi'
p5294
(lp5295
S'madison, wisconsin'
p5296
asS'paniha'
p5297
(lp5298
S'panihati'
p5299
asS'miam'
p5300
(lp5301
S'miami, florida'
p5302
asS'lin'
p5303
(lp5304
S'lincoln, nebraska'
p5305
asS'philadel'
p5306
(lp5307
S'philadelphia, pennsylvania'
p5308
asS'charlotte, north caroli'
p5309
(lp5310
S'charlotte, north carolina'
p5311
asS'detroit, mich'
p5312
(lp5313
S'detroit, michigan'
p5314
asS'jodhp'
p5315
(lp5316
S'jodhpur'
p5317
asS'chandler, arizon'
p5318
(lp5319
S'chandler, arizona'
p5320
asS'bardham'
p5321
(lp5322
S'bardhaman'
p5323
asS'dehradu'
p5324
(lp5325
S'dehradun'
p5326
asS'buff'
p5327
(lp5328
S'buffalo, new york'
p5329
asS'rajahmund'
p5330
(lp5331
S'rajahmundry'
p5332
asS'birmin'
p5333
(lp5334
S'birmingham, alabama'
p5335
asS'tiruchirappall'
p5336
(lp5337
S'tiruchirappalli'
p5338
asS'kad'
p5339
(lp5340
S'kadapa'
p5341
asS'irvine, cal'
p5342
(lp5343
S'irvine, california'
p5344
asS'san francisco, ca'
p5345
(lp5346
S'san francisco, california'
p5347
asS'tiruchi'
p5348
(lp5349
S'tiruchirappalli'
p5350
asS'kan'
p5351
(lp5352
S'kanpur'
p5353
aS'kansas city, missouri'
p5354
asS'kam'
p5355
(lp5356
S'kamarhati'
p5357
asS'kal'
p5358
(lp5359
S'kalyan-dombivali'
p5360
asS'rajahmu'
p5361
(lp5362
S'rajahmundry'
p5363
asS'kar'
p5364
(lp5365
S'karawal nagar'
p5366
aS'karimnagar'
p5367
aS'karnal'
p5368
asS'honolulu cdp, ha'
p5369
(lp5370
S'honolulu cdp, hawaii'
p5371
asS'charl'
p5372
(lp5373
S'charlotte, north carolina'
p5374
asS'amar'
p5375
(lp5376
S'amaravati'
p5377
asS'minneapolis, minneso'
p5378
(lp5379
S'minneapolis, minnesota'
p5380
asS'gopa'
p5381
(lp5382
S'gopalpur'
p5383
asS'mesa, a'
p5384
(lp5385
S'mesa, arizona'
p5386
asS'los an'
p5387
(lp5388
S'los angeles, california'
p5389
asS'ka'
p5390
(lp5391
S'kadapa'
p5392
aS'kakinada'
p5393
aS'kalyan-dombivali'
p5394
aS'kamarhati'
p5395
aS'kanpur'
p5396
aS'kansas city, missouri'
p5397
aS'karawal nagar'
p5398
aS'karimnagar'
p5399
aS'karnal'
p5400
aS'katihar'
p5401
asS'omaha'
p5402
(lp5403
S'omaha, nebraska'
p5404
asS'ki'
p5405
(lp5406
S'kirari suleman nagar'
p5407
asS'kh'
p5408
(lp5409
S'khammam'
p5410
asS'ko'
p5411
(lp5412
S'kochi'
p5413
aS'kolhapur'
p5414
aS'kolkata'
p5415
aS'kollam'
p5416
aS'korba'
p5417
aS'kota'
p5418
aS'kozhikode'
p5419
asS'los angeles, cal'
p5420
(lp5421
S'los angeles, california'
p5422
asS'baltimore, '
p5423
(lp5424
S'baltimore, maryland'
p5425
asS'garlan'
p5426
(lp5427
S'garland, texas'
p5428
asS'chula v'
p5429
(lp5430
S'chula vista, california'
p5431
asS'kalya'
p5432
(lp5433
S'kalyan-dombivali'
p5434
asS'santa ana, cal'
p5435
(lp5436
S'santa ana, california'
p5437
asS'ku'
p5438
(lp5439
S'kulti'
p5440
aS'kurnool'
p5441
asS'fort wayne, indi'
p5442
(lp5443
S'fort wayne, indiana'
p5444
asS'plano'
p5445
(lp5446
S'plano, texas'
p5447
asS'raleigh, north ca'
p5448
(lp5449
S'raleigh, north carolina'
p5450
asS'washington, district'
p5451
(lp5452
S'washington, district of columbia'
p5453
asS'oklahoma city,'
p5454
(lp5455
S'oklahoma city, oklahoma'
p5456
asS'charlotte, nort'
p5457
(lp5458
S'charlotte, north carolina'
p5459
asS'north las veg'
p5460
(lp5461
S'north las vegas, nevada'
p5462
asS'berhamp'
p5463
(lp5464
S'berhampur'
p5465
asS'virginia bea'
p5466
(lp5467
S'virginia beach, virginia'
p5468
asS'detroi'
p5469
(lp5470
S'detroit, michigan'
p5471
asS'corpus christi, texa'
p5472
(lp5473
S'corpus christi, texas'
p5474
asS'birmingham, alabam'
p5475
(lp5476
S'birmingham, alabama'
p5477
asS'lubbock, '
p5478
(lp5479
S'lubbock, texas'
p5480
asS'san francis'
p5481
(lp5482
S'san francisco, california'
p5483
asS'lexingto'
p5484
(lp5485
S'lexington, kentucky'
p5486
asS'gopalpu'
p5487
(lp5488
S'gopalpur'
p5489
asS'kada'
p5490
(lp5491
S'kadapa'
p5492
asS'honolulu cdp, haw'
p5493
(lp5494
S'honolulu cdp, hawaii'
p5495
asS'mesa, arizon'
p5496
(lp5497
S'mesa, arizona'
p5498
asS'irvine,'
p5499
(lp5500
S'irvine, california'
p5501
asS'san juan, puerto r'
p5502
(lp5503
S'san juan, puerto rico'
p5504
asS'indianapo'
p5505
(lp5506
S'indianapolis, indiana'
p5507
asS'kansas city, missour'
p5508
(lp5509
S'kansas city, missouri'
p5510
asS'detroit,'
p5511
(lp5512
S'detroit, michigan'
p5513
asS'kalyan-dombi'
p5514
(lp5515
S'kalyan-dombivali'
p5516
asS'cincinnati, '
p5517
(lp5518
S'cincinnati, ohio'
p5519
asS'kurnoo'
p5520
(lp5521
S'kurnool'
p5522
asS'town of gilber'
p5523
(lp5524
S'town of gilbert, arizona'
p5525
asS'los angeles, califor'
p5526
(lp5527
S'los angeles, california'
p5528
asS'los a'
p5529
(lp5530
S'los angeles, california'
p5531
asS'srinaga'
p5532
(lp5533
S'srinagar'
p5534
asS'boston, m'
p5535
(lp5536
S'boston, massachusetts'
p5537
asS'hia'
p5538
(lp5539
S'hialeah, florida'
p5540
asS'atlanta, g'
p5541
(lp5542
S'atlanta, georgia'
p5543
asS'san juan, puerto ri'
p5544
(lp5545
S'san juan, puerto rico'
p5546
asS'hubballi-dh'
p5547
(lp5548
S'hubballi-dharwad'
p5549
asS'irving, t'
p5550
(lp5551
S'irving, texas'
p5552
asS'bihar s'
p5553
(lp5554
S'bihar sharif'
p5555
asS'vasai-v'
p5556
(lp5557
S'vasai-virar'
p5558
asS'bakersfield, calif'
p5559
(lp5560
S'bakersfield, california'
p5561
asS'pimpri-chinch'
p5562
(lp5563
S'pimpri-chinchwad'
p5564
asS'san juan, p'
p5565
(lp5566
S'san juan, puerto rico'
p5567
asS'river'
p5568
(lp5569
S'riverside, california'
p5570
asS'new york, '
p5571
(lp5572
S'new york, new york'
p5573
asS'kansas '
p5574
(lp5575
S'kansas city, missouri'
p5576
asS'arr'
p5577
(lp5578
S'arrah'
p5579
asS'anchorage,'
p5580
(lp5581
S'anchorage, alaska'
p5582
asS'kirar'
p5583
(lp5584
S'kirari suleman nagar'
p5585
asS'bara'
p5586
(lp5587
S'baranagar'
p5588
aS'barasat'
p5589
asS'muzaffa'
p5590
(lp5591
S'muzaffarnagar'
p5592
aS'muzaffarpur'
p5593
asS'jersey city, new jers'
p5594
(lp5595
S'jersey city, new jersey'
p5596
asS'bard'
p5597
(lp5598
S'bardhaman'
p5599
asS'sea'
p5600
(lp5601
S'seattle, washington'
p5602
asS'chandler, arizo'
p5603
(lp5604
S'chandler, arizona'
p5605
asS'chitt'
p5606
(lp5607
S'chittoor'
p5608
asS'arl'
p5609
(lp5610
S'arlington, texas'
p5611
asS'atla'
p5612
(lp5613
S'atlanta, georgia'
p5614
asS'ichal'
p5615
(lp5616
S'ichalkaranji'
p5617
asS'las '
p5618
(lp5619
S'las vegas, nevada'
p5620
asS'bharatpu'
p5621
(lp5622
S'bharatpur'
p5623
asS'saharan'
p5624
(lp5625
S'saharanpur'
p5626
asS'toledo'
p5627
(lp5628
S'toledo, ohio'
p5629
asS'coimbat'
p5630
(lp5631
S'coimbatore'
p5632
asS'san bernardino, calif'
p5633
(lp5634
S'san bernardino, california'
p5635
asS'mira-bhaya'
p5636
(lp5637
S'mira-bhayandar'
p5638
asS'portland, ore'
p5639
(lp5640
S'portland, oregon'
p5641
asS'dalla'
p5642
(lp5643
S'dallas, texas'
p5644
asS'nashville'
p5645
(lp5646
S'nashville, tennessee'
p5647
asS'sola'
p5648
(lp5649
S'solapur'
p5650
asS'oakland, cal'
p5651
(lp5652
S'oakland, california'
p5653
asS'kalyan-dom'
p5654
(lp5655
S'kalyan-dombivali'
p5656
asS'farida'
p5657
(lp5658
S'faridabad'
p5659
asS'po'
p5660
(lp5661
S'portland, oregon'
p5662
asS'san bernardino'
p5663
(lp5664
S'san bernardino, california'
p5665
asS'wichita'
p5666
(lp5667
S'wichita, kansas'
p5668
asS'philadelphia, pennsylvani'
p5669
(lp5670
S'philadelphia, pennsylvania'
p5671
asS'c'
p5672
(lp5673
S'chandigarh'
p5674
aS'chandler, arizona'
p5675
aS'chandrapur'
p5676
aS'charlotte, north carolina'
p5677
aS'chennai'
p5678
aS'chesapeake, virginia'
p5679
aS'chicago, illinois'
p5680
aS'chittoor'
p5681
aS'chula vista, california'
p5682
aS'cincinnati, ohio'
p5683
aS'cleveland, ohio'
p5684
aS'coimbatore'
p5685
aS'colorado springs, colorado'
p5686
aS'columbus, ohio'
p5687
aS'corpus christi, texas'
p5688
aS'cuttack'
p5689
asS'virginia beac'
p5690
(lp5691
S'virginia beach, virginia'
p5692
asS'town of gilbert, ari'
p5693
(lp5694
S'town of gilbert, arizona'
p5695
asS'jersey city, ne'
p5696
(lp5697
S'jersey city, new jersey'
p5698
asS'thoo'
p5699
(lp5700
S'thoothukudi'
p5701
asS'lared'
p5702
(lp5703
S'laredo, texas'
p5704
asS'washington, dis'
p5705
(lp5706
S'washington, district of columbia'
p5707
asS'seattle, was'
p5708
(lp5709
S'seattle, washington'
p5710
asS'san francisco, californi'
p5711
(lp5712
S'san francisco, california'
p5713
asS'baltimore'
p5714
(lp5715
S'baltimore, maryland'
p5716
asS'baltimore, maryl'
p5717
(lp5718
S'baltimore, maryland'
p5719
asS'bell'
p5720
(lp5721
S'bellary'
p5722
asS'ambattu'
p5723
(lp5724
S'ambattur'
p5725
asS'belg'
p5726
(lp5727
S'belgaum'
p5728
asS'jersey ci'
p5729
(lp5730
S'jersey city, new jersey'
p5731
asS'hial'
p5732
(lp5733
S'hialeah, florida'
p5734
asS'winston\xe2\x80\x93salem, north caro'
p5735
(lp5736
S'winston\xe2\x80\x93salem, north carolina'
p5737
asS'pu'
p5738
(lp5739
S'puducherry'
p5740
aS'pune'
p5741
aS'purnia'
p5742
asS'jersey city, new jer'
p5743
(lp5744
S'jersey city, new jersey'
p5745
asS'pa'
p5746
(lp5747
S'pali'
p5748
aS'panihati'
p5749
aS'panipat'
p5750
aS'parbhani'
p5751
aS'patiala'
p5752
aS'patna'
p5753
asS'san juan, pu'
p5754
(lp5755
S'san juan, puerto rico'
p5756
asS'jersey cit'
p5757
(lp5758
S'jersey city, new jersey'
p5759
asS'farruk'
p5760
(lp5761
S'farrukhabad'
p5762
asS'dur'
p5763
(lp5764
S'durg'
p5765
aS'durgapur'
p5766
aS'durham, north carolina'
p5767
asS'pi'
p5768
(lp5769
S'pimpri-chinchwad'
p5770
aS'pittsburgh, pennsylvania'
p5771
asS'chandler'
p5772
(lp5773
S'chandler, arizona'
p5774
asS'orlando, flor'
p5775
(lp5776
S'orlando, florida'
p5777
asS'silig'
p5778
(lp5779
S'siliguri'
p5780
asS'tucson, ari'
p5781
(lp5782
S'tucson, arizona'
p5783
asS'firo'
p5784
(lp5785
S'firozabad'
p5786
asS'gay'
p5787
(lp5788
S'gaya'
p5789
asS'garland, texa'
p5790
(lp5791
S'garland, texas'
p5792
asS'raj'
p5793
(lp5794
S'rajahmundry'
p5795
aS'rajkot'
p5796
aS'rajpur sonarpur'
p5797
asS'gar'
p5798
(lp5799
S'garland, texas'
p5800
asS'gan'
p5801
(lp5802
S'gandhidham'
p5803
aS'gandhinagar'
p5804
asS'jacksonville, flo'
p5805
(lp5806
S'jacksonville, florida'
p5807
asS'henderson, neva'
p5808
(lp5809
S'henderson, nevada'
p5810
asS'cinci'
p5811
(lp5812
S'cincinnati, ohio'
p5813
asS'sri ganganag'
p5814
(lp5815
S'sri ganganagar'
p5816
asS'farrukhab'
p5817
(lp5818
S'farrukhabad'
p5819
asS'wichita, kans'
p5820
(lp5821
S'wichita, kansas'
p5822
asS'bila'
p5823
(lp5824
S'bilaspur'
p5825
asS'fort worth, '
p5826
(lp5827
S'fort worth, texas'
p5828
asS'charlotte, no'
p5829
(lp5830
S'charlotte, north carolina'
p5831
asS'winsto'
p5832
(lp5833
S'winston\xe2\x80\x93salem, north carolina'
p5834
asS'buffalo, new yo'
p5835
(lp5836
S'buffalo, new york'
p5837
asS'henderson, '
p5838
(lp5839
S'henderson, nevada'
p5840
asS'columbus, oh'
p5841
(lp5842
S'columbus, ohio'
p5843
asS'durham, north '
p5844
(lp5845
S'durham, north carolina'
p5846
asS'el pa'
p5847
(lp5848
S'el paso, texas'
p5849
asS'riv'
p5850
(lp5851
S'riverside, california'
p5852
asS'reno, ne'
p5853
(lp5854
S'reno, nevada'
p5855
asS'lubbock,'
p5856
(lp5857
S'lubbock, texas'
p5858
asS'washington, di'
p5859
(lp5860
S'washington, district of columbia'
p5861
asS'st. '
p5862
(lp5863
S'st. louis, missouri'
p5864
asS'bakersfield, '
p5865
(lp5866
S'bakersfield, california'
p5867
asS'boston, ma'
p5868
(lp5869
S'boston, massachusetts'
p5870
asS'bhu'
p5871
(lp5872
S'bhubaneswar'
p5873
asS'thiruvana'
p5874
(lp5875
S'thiruvananthapuram'
p5876
asS'tiruchirapp'
p5877
(lp5878
S'tiruchirappalli'
p5879
asS'oakland, c'
p5880
(lp5881
S'oakland, california'
p5882
asS'tiruppu'
p5883
(lp5884
S'tiruppur'
p5885
asS'shah'
p5886
(lp5887
S'shahjahanpur'
p5888
asS'sah'
p5889
(lp5890
S'saharanpur'
p5891
asS'memphi'
p5892
(lp5893
S'memphis, tennessee'
p5894
asS'indianapolis'
p5895
(lp5896
S'indianapolis, indiana'
p5897
asS'tirupp'
p5898
(lp5899
S'tiruppur'
p5900
asS'sangl'
p5901
(lp5902
S'sangli-miraj & kupwad'
p5903
asS'chula '
p5904
(lp5905
S'chula vista, california'
p5906
asS'bilasp'
p5907
(lp5908
S'bilaspur'
p5909
asS'tirupa'
p5910
(lp5911
S'tirupati'
p5912
asS'koch'
p5913
(lp5914
S'kochi'
p5915
asS'oklah'
p5916
(lp5917
S'oklahoma city, oklahoma'
p5918
asS'howr'
p5919
(lp5920
S'howrah'
p5921
asS'santa a'
p5922
(lp5923
S'santa ana, california'
p5924
asS'madison, wisc'
p5925
(lp5926
S'madison, wisconsin'
p5927
asS'virginia beach,'
p5928
(lp5929
S'virginia beach, virginia'
p5930
asS'san'
p5931
(lp5932
S'san antonio, texas'
p5933
aS'san bernardino, california'
p5934
aS'san diego, california'
p5935
aS'san francisco, california'
p5936
aS'san jose, california'
p5937
aS'san juan, puerto rico'
p5938
aS'sangli-miraj & kupwad'
p5939
aS'santa ana, california'
p5940
asS'birmingham,'
p5941
(lp5942
S'birmingham, alabama'
p5943
asS'kirari s'
p5944
(lp5945
S'kirari suleman nagar'
p5946
asS'tucson, ar'
p5947
(lp5948
S'tucson, arizona'
p5949
asS'greensboro, north caro'
p5950
(lp5951
S'greensboro, north carolina'
p5952
asS'bihar '
p5953
(lp5954
S'bihar sharif'
p5955
asS'thiruvanan'
p5956
(lp5957
S'thiruvananthapuram'
p5958
asS'wic'
p5959
(lp5960
S'wichita, kansas'
p5961
asS'stockton'
p5962
(lp5963
S'stockton, california'
p5964
asS'new york, new yo'
p5965
(lp5966
S'new york, new york'
p5967
asS'waran'
p5968
(lp5969
S'warangal'
p5970
asS'jhans'
p5971
(lp5972
S'jhansi'
p5973
asS'bangalo'
p5974
(lp5975
S'bangalore'
p5976
asS'plano, te'
p5977
(lp5978
S'plano, texas'
p5979
asS'dallas, texa'
p5980
(lp5981
S'dallas, texas'
p5982
asS'birmingham, a'
p5983
(lp5984
S'birmingham, alabama'
p5985
asS'hyderaba'
p5986
(lp5987
S'hyderabad'
p5988
asS'dhan'
p5989
(lp5990
S'dhanbad'
p5991
asS'houston, t'
p5992
(lp5993
S'houston, texas'
p5994
asS'vadoda'
p5995
(lp5996
S'vadodara'
p5997
asS'kirari sule'
p5998
(lp5999
S'kirari suleman nagar'
p6000
asS'bil'
p6001
(lp6002
S'bilaspur'
p6003
asS'bij'
p6004
(lp6005
S'bijapur'
p6006
asS'bik'
p6007
(lp6008
S'bikaner'
p6009
asS'bih'
p6010
(lp6011
S'bihar sharif'
p6012
asS'fremont'
p6013
(lp6014
S'fremont, california'
p6015
asS'baranaga'
p6016
(lp6017
S'baranagar'
p6018
asS'anaheim, californ'
p6019
(lp6020
S'anaheim, california'
p6021
asS'mia'
p6022
(lp6023
S'miami, florida'
p6024
asS'winston\xe2\x80\x93salem'
p6025
(lp6026
S'winston\xe2\x80\x93salem, north carolina'
p6027
asS'louisvil'
p6028
(lp6029
S'louisville, kentucky'
p6030
asS'bir'
p6031
(lp6032
S'birmingham, alabama'
p6033
asS'jacksonville'
p6034
(lp6035
S'jacksonville, florida'
p6036
asS'pittsburgh,'
p6037
(lp6038
S'pittsburgh, pennsylvania'
p6039
asS'plano, t'
p6040
(lp6041
S'plano, texas'
p6042
asS'd'
p6043
(lp6044
S'dallas, texas'
p6045
aS'darbhanga'
p6046
aS'davanagere'
p6047
aS'dehradun'
p6048
aS'delhi'
p6049
aS'denver, colorado'
p6050
aS'detroit, michigan'
p6051
aS'dewas'
p6052
aS'dhanbad'
p6053
aS'dhule'
p6054
aS'durg'
p6055
aS'durgapur'
p6056
aS'durham, north carolina'
p6057
asS'parbha'
p6058
(lp6059
S'parbhani'
p6060
asS'dallas, tex'
p6061
(lp6062
S'dallas, texas'
p6063
asS'gandhin'
p6064
(lp6065
S'gandhinagar'
p6066
asS'clevelan'
p6067
(lp6068
S'cleveland, ohio'
p6069
asS'gandhid'
p6070
(lp6071
S'gandhidham'
p6072
asS'birmi'
p6073
(lp6074
S'birmingham, alabama'
p6075
asS'moradaba'
p6076
(lp6077
S'moradabad'
p6078
asS'pittsburgh, pennsylva'
p6079
(lp6080
S'pittsburgh, pennsylvania'
p6081
asS'detroit, michig'
p6082
(lp6083
S'detroit, michigan'
p6084
asS'south d'
p6085
(lp6086
S'south dumdum'
p6087
asS'jodhpu'
p6088
(lp6089
S'jodhpur'
p6090
asS'san francisco'
p6091
(lp6092
S'san francisco, california'
p6093
asS'kirari suleman na'
p6094
(lp6095
S'kirari suleman nagar'
p6096
asS'sri '
p6097
(lp6098
S'sri ganganagar'
p6099
asS'chesape'
p6100
(lp6101
S'chesapeake, virginia'
p6102
asS'new orleans, '
p6103
(lp6104
S'new orleans, louisiana'
p6105
asS'sri ganga'
p6106
(lp6107
S'sri ganganagar'
p6108
asS'sri ga'
p6109
(lp6110
S'sri ganganagar'
p6111
asS'stockton, c'
p6112
(lp6113
S'stockton, california'
p6114
asS'rou'
p6115
(lp6116
S'rourkela'
p6117
aS'rourkela'
p6118
asS'mira-bh'
p6119
(lp6120
S'mira-bhayandar'
p6121
asS'newark'
p6122
(lp6123
S'newark, new jersey'
p6124
asS'kak'
p6125
(lp6126
S'kakinada'
p6127
asS'boka'
p6128
(lp6129
S'bokaro'
p6130
asS'lare'
p6131
(lp6132
S'laredo, texas'
p6133
asS'newark, new jer'
p6134
(lp6135
S'newark, new jersey'
p6136
asS'reno, n'
p6137
(lp6138
S'reno, nevada'
p6139
asS'be'
p6140
(lp6141
S'begusarai'
p6142
aS'belgaum'
p6143
aS'bellary'
p6144
aS'berhampur'
p6145
asS'san jose, califor'
p6146
(lp6147
S'san jose, california'
p6148
asS'noid'
p6149
(lp6150
S'noida'
p6151
asS'ba'
p6152
(lp6153
S'bakersfield, california'
p6154
aS'bally'
p6155
aS'baltimore, maryland'
p6156
aS'bangalore'
p6157
aS'baranagar'
p6158
aS'barasat'
p6159
aS'bardhaman'
p6160
aS'bareilly'
p6161
aS'bathinda'
p6162
aS'baton rouge, louisiana'
p6163
asS'nello'
p6164
(lp6165
S'nellore'
p6166
asS'bo'
p6167
(lp6168
S'bokaro'
p6169
aS'boston, massachusetts'
p6170
asS'bh'
p6171
(lp6172
S'bhagalpur'
p6173
aS'bharatpur'
p6174
aS'bhatpara'
p6175
aS'bhavnagar'
p6176
aS'bhilai'
p6177
aS'bhilwara'
p6178
aS'bhiwandi'
p6179
aS'bhopal'
p6180
aS'bhubaneswar'
p6181
asS'bi'
p6182
(lp6183
S'bihar sharif'
p6184
aS'bijapur'
p6185
aS'bikaner'
p6186
aS'bilaspur'
p6187
aS'birmingham, alabama'
p6188
asS'bu'
p6189
(lp6190
S'buffalo, new york'
p6191
asS'srin'
p6192
(lp6193
S'srinagar'
p6194
asS'orla'
p6195
(lp6196
S'orlando, florida'
p6197
asS'bhilw'
p6198
(lp6199
S'bhilwara'
p6200
asS'phoenix, arizo'
p6201
(lp6202
S'phoenix, arizona'
p6203
asS'fremont, califor'
p6204
(lp6205
S'fremont, california'
p6206
asS'memphis, tenness'
p6207
(lp6208
S'memphis, tennessee'
p6209
asS'winston\xe2\x80\x93salem, north c'
p6210
(lp6211
S'winston\xe2\x80\x93salem, north carolina'
p6212
asS'long beach, californ'
p6213
(lp6214
S'long beach, california'
p6215
asS'saint pau'
p6216
(lp6217
S'saint paul, minnesota'
p6218
asS'sacrament'
p6219
(lp6220
S'sacramento, california'
p6221
asS'birming'
p6222
(lp6223
S'birmingham, alabama'
p6224
asS'stockton, califor'
p6225
(lp6226
S'stockton, california'
p6227
asS'chandler,'
p6228
(lp6229
S'chandler, arizona'
p6230
asS'kansas city, missou'
p6231
(lp6232
S'kansas city, missouri'
p6233
asS'hapu'
p6234
(lp6235
S'hapur'
p6236
asS'chandler, a'
p6237
(lp6238
S'chandler, arizona'
p6239
asS'colorado'
p6240
(lp6241
S'colorado springs, colorado'
p6242
asS'new de'
p6243
(lp6244
S'new delhi'
p6245
asS'kat'
p6246
(lp6247
S'katihar'
p6248
asS'irving, te'
p6249
(lp6250
S'irving, texas'
p6251
asS'gulbar'
p6252
(lp6253
S'gulbarga'
p6254
asS'chesap'
p6255
(lp6256
S'chesapeake, virginia'
p6257
asS'katih'
p6258
(lp6259
S'katihar'
p6260
asS'bihar sha'
p6261
(lp6262
S'bihar sharif'
p6263
asS'ozhukara'
p6264
(lp6265
S'ozhukarai'
p6266
asS'kalyan-dombiv'
p6267
(lp6268
S'kalyan-dombivali'
p6269
asS'winston\xe2\x80'
p6270
(lp6271
S'winston\xe2\x80\x93salem, north carolina'
p6272
asS'birmingham, ala'
p6273
(lp6274
S'birmingham, alabama'
p6275
asS'navi mumba'
p6276
(lp6277
S'navi mumbai'
p6278
asS'navi mum'
p6279
(lp6280
S'navi mumbai'
p6281
asS'boston, '
p6282
(lp6283
S'boston, massachusetts'
p6284
asS'long'
p6285
(lp6286
S'long beach, california'
p6287
asS'mesa,'
p6288
(lp6289
S'mesa, arizona'
p6290
asS'norfolk, virgin'
p6291
(lp6292
S'norfolk, virginia'
p6293
asS'lexi'
p6294
(lp6295
S'lexington, kentucky'
p6296
asS'buffalo, '
p6297
(lp6298
S'buffalo, new york'
p6299
asS'san diego,'
p6300
(lp6301
S'san diego, california'
p6302
asS'fort wo'
p6303
(lp6304
S'fort worth, texas'
p6305
asS'jacks'
p6306
(lp6307
S'jacksonville, florida'
p6308
asS'fort wa'
p6309
(lp6310
S'fort wayne, indiana'
p6311
asS'aurora, col'
p6312
(lp6313
S'aurora, colorado'
p6314
asS'winston\xe2'
p6315
(lp6316
S'winston\xe2\x80\x93salem, north carolina'
p6317
asS'lubboc'
p6318
(lp6319
S'lubbock, texas'
p6320
asS'louisville, '
p6321
(lp6322
S'louisville, kentucky'
p6323
asS'linc'
p6324
(lp6325
S'lincoln, nebraska'
p6326
asS'lexington, kent'
p6327
(lp6328
S'lexington, kentucky'
p6329
asS'tum'
p6330
(lp6331
S'tumkur'
p6332
asS'dehra'
p6333
(lp6334
S'dehradun'
p6335
asS'sil'
p6336
(lp6337
S'siliguri'
p6338
asS'cin'
p6339
(lp6340
S'cincinnati, ohio'
p6341
asS'dehr'
p6342
(lp6343
S'dehradun'
p6344
asS'jamnag'
p6345
(lp6346
S'jamnagar'
p6347
asS'ul'
p6348
(lp6349
S'ulhasnagar'
p6350
asS'durham, north c'
p6351
(lp6352
S'durham, north carolina'
p6353
asS'uj'
p6354
(lp6355
S'ujjain'
p6356
asS'baton '
p6357
(lp6358
S'baton rouge, louisiana'
p6359
asS'ud'
p6360
(lp6361
S'udaipur'
p6362
asS'imph'
p6363
(lp6364
S'imphal'
p6365
asS'henderson, n'
p6366
(lp6367
S'henderson, nevada'
p6368
asS'washington, district of col'
p6369
(lp6370
S'washington, district of columbia'
p6371
asS'philadelphia,'
p6372
(lp6373
S'philadelphia, pennsylvania'
p6374
asS'jhan'
p6375
(lp6376
S'jhansi'
p6377
asS'ghaziaba'
p6378
(lp6379
S'ghaziabad'
p6380
asS'wich'
p6381
(lp6382
S'wichita, kansas'
p6383
asS'tulsa, o'
p6384
(lp6385
S'tulsa, oklahoma'
p6386
asS'chan'
p6387
(lp6388
S'chandigarh'
p6389
aS'chandler, arizona'
p6390
aS'chandrapur'
p6391
asS'cincinnati,'
p6392
(lp6393
S'cincinnati, ohio'
p6394
asS'kansas city, m'
p6395
(lp6396
S'kansas city, missouri'
p6397
asS'char'
p6398
(lp6399
S'charlotte, north carolina'
p6400
asS'madison, wiscon'
p6401
(lp6402
S'madison, wisconsin'
p6403
asS'bakersfie'
p6404
(lp6405
S'bakersfield, california'
p6406
asS'amarava'
p6407
(lp6408
S'amaravati'
p6409
asS'charlotte, north car'
p6410
(lp6411
S'charlotte, north carolina'
p6412
asS'colorado springs,'
p6413
(lp6414
S'colorado springs, colorado'
p6415
asS'ghaziab'
p6416
(lp6417
S'ghaziabad'
p6418
asS'guwaha'
p6419
(lp6420
S'guwahati'
p6421
asS'kamar'
p6422
(lp6423
S'kamarhati'
p6424
asS'stockton, cali'
p6425
(lp6426
S'stockton, california'
p6427
asS'nan'
p6428
(lp6429
S'nanded'
p6430
asS'anaheim, cali'
p6431
(lp6432
S'anaheim, california'
p6433
asS'gre'
p6434
(lp6435
S'greensboro, north carolina'
p6436
asS'nav'
p6437
(lp6438
S'navi mumbai'
p6439
asS'kira'
p6440
(lp6441
S'kirari suleman nagar'
p6442
asS'town of'
p6443
(lp6444
S'town of gilbert, arizona'
p6445
asS'mesa, arizo'
p6446
(lp6447
S'mesa, arizona'
p6448
asS'nashvill'
p6449
(lp6450
S'nashville, tennessee'
p6451
asS'dall'
p6452
(lp6453
S'dallas, texas'
p6454
asS'baton rouge, louisi'
p6455
(lp6456
S'baton rouge, louisiana'
p6457
asS'kansas'
p6458
(lp6459
S'kansas city, missouri'
p6460
asS'newark, new je'
p6461
(lp6462
S'newark, new jersey'
p6463
asS'korb'
p6464
(lp6465
S'korba'
p6466
asS'ozhu'
p6467
(lp6468
S'ozhukarai'
p6469
asS'dallas, t'
p6470
(lp6471
S'dallas, texas'
p6472
asS'tulsa, okl'
p6473
(lp6474
S'tulsa, oklahoma'
p6475
asS'indianapolis, indian'
p6476
(lp6477
S'indianapolis, indiana'
p6478
asS'e'
p6479
(lp6480
S'el paso, texas'
p6481
aS'eluru'
p6482
aS'erode'
p6483
aS'etawah'
p6484
asS'chicago, ill'
p6485
(lp6486
S'chicago, illinois'
p6487
asS'aga'
p6488
(lp6489
S'agartala'
p6490
asS'minneap'
p6491
(lp6492
S'minneapolis, minnesota'
p6493
asS'tiruch'
p6494
(lp6495
S'tiruchirappalli'
p6496
asS'bhagal'
p6497
(lp6498
S'bhagalpur'
p6499
asS'sahara'
p6500
(lp6501
S'saharanpur'
p6502
asS'honolulu cdp, h'
p6503
(lp6504
S'honolulu cdp, hawaii'
p6505
asS'ratla'
p6506
(lp6507
S'ratlam'
p6508
asS'nash'
p6509
(lp6510
S'nashik'
p6511
aS'nashville, tennessee'
p6512
asS'buffalo'
p6513
(lp6514
S'buffalo, new york'
p6515
asS'agr'
p6516
(lp6517
S'agra'
p6518
asS'fresn'
p6519
(lp6520
S'fresno, california'
p6521
asS'gw'
p6522
(lp6523
S'gwalior'
p6524
asS'gu'
p6525
(lp6526
S'gulbarga'
p6527
aS'guntur'
p6528
aS'gurgaon'
p6529
aS'guwahati'
p6530
asS'fresno, cali'
p6531
(lp6532
S'fresno, california'
p6533
asS'gr'
p6534
(lp6535
S'greensboro, north carolina'
p6536
asS'anaheim, cal'
p6537
(lp6538
S'anaheim, california'
p6539
asS'thiruvananthapur'
p6540
(lp6541
S'thiruvananthapuram'
p6542
asS'atlanta, georgi'
p6543
(lp6544
S'atlanta, georgia'
p6545
asS'washi'
p6546
(lp6547
S'washington, district of columbia'
p6548
asS'scottsdale, ari'
p6549
(lp6550
S'scottsdale, arizona'
p6551
asS'ga'
p6552
(lp6553
S'gandhidham'
p6554
aS'gandhinagar'
p6555
aS'garland, texas'
p6556
aS'gaya'
p6557
asS'go'
p6558
(lp6559
S'gopalpur'
p6560
aS'gorakhpur'
p6561
asS'gl'
p6562
(lp6563
S'glendale, arizona'
p6564
asS'pittsbu'
p6565
(lp6566
S'pittsburgh, pennsylvania'
p6567
asS'pimpri-c'
p6568
(lp6569
S'pimpri-chinchwad'
p6570
asS'cincin'
p6571
(lp6572
S'cincinnati, ohio'
p6573
asS'gh'
p6574
(lp6575
S'ghaziabad'
p6576
asS'atlan'
p6577
(lp6578
S'atlanta, georgia'
p6579
asS'ambern'
p6580
(lp6581
S'ambernath'
p6582
asS'greensboro, north car'
p6583
(lp6584
S'greensboro, north carolina'
p6585
asS'st. louis,'
p6586
(lp6587
S'st. louis, missouri'
p6588
asS'pimpri-chinchwa'
p6589
(lp6590
S'pimpri-chinchwad'
p6591
asS'fort wayne'
p6592
(lp6593
S'fort wayne, indiana'
p6594
asS'glendale, arizon'
p6595
(lp6596
S'glendale, arizona'
p6597
asS'new orle'
p6598
(lp6599
S'new orleans, louisiana'
p6600
asS'stockton,'
p6601
(lp6602
S'stockton, california'
p6603
asS'tulsa'
p6604
(lp6605
S'tulsa, oklahoma'
p6606
asS'irvine, '
p6607
(lp6608
S'irvine, california'
p6609
asS'oklahoma city, okla'
p6610
(lp6611
S'oklahoma city, oklahoma'
p6612
asS'atlanta, ge'
p6613
(lp6614
S'atlanta, georgia'
p6615
asS'roht'
p6616
(lp6617
S'rohtak'
p6618
asS'pun'
p6619
(lp6620
S'pune'
p6621
asS'memph'
p6622
(lp6623
S'memphis, tennessee'
p6624
asS'north las vegas'
p6625
(lp6626
S'north las vegas, nevada'
p6627
asS'chesapeake, virgini'
p6628
(lp6629
S'chesapeake, virginia'
p6630
asS'north la'
p6631
(lp6632
S'north las vegas, nevada'
p6633
asS'oklahoma city, oklah'
p6634
(lp6635
S'oklahoma city, oklahoma'
p6636
asS'tampa, f'
p6637
(lp6638
S'tampa, florida'
p6639
asS'las vegas, '
p6640
(lp6641
S'las vegas, nevada'
p6642
asS'ambatt'
p6643
(lp6644
S'ambattur'
p6645
asS'mirzap'
p6646
(lp6647
S'mirzapur'
p6648
asS'virginia beach, virgin'
p6649
(lp6650
S'virginia beach, virginia'
p6651
asS'ramagund'
p6652
(lp6653
S'ramagundam'
p6654
asS'muzaffarnag'
p6655
(lp6656
S'muzaffarnagar'
p6657
asS'albuquer'
p6658
(lp6659
S'albuquerque, new mexico'
p6660
asS'irving,'
p6661
(lp6662
S'irving, texas'
p6663
asS'seattle, washin'
p6664
(lp6665
S'seattle, washington'
p6666
asS'anchorage, '
p6667
(lp6668
S'anchorage, alaska'
p6669
asS'barana'
p6670
(lp6671
S'baranagar'
p6672
asS'chula vista, californi'
p6673
(lp6674
S'chula vista, california'
p6675
asS'hyde'
p6676
(lp6677
S'hyderabad'
p6678
asS'berham'
p6679
(lp6680
S'berhampur'
p6681
asS'south dumd'
p6682
(lp6683
S'south dumdum'
p6684
asS'chula vista, calif'
p6685
(lp6686
S'chula vista, california'
p6687
asS'stockton, californi'
p6688
(lp6689
S'stockton, california'
p6690
asS'nashville, t'
p6691
(lp6692
S'nashville, tennessee'
p6693
asS'san franc'
p6694
(lp6695
S'san francisco, california'
p6696
asS'tirunelvel'
p6697
(lp6698
S'tirunelveli'
p6699
asS'chicago'
p6700
(lp6701
S'chicago, illinois'
p6702
asS'shahjah'
p6703
(lp6704
S'shahjahanpur'
p6705
asS'los angeles, califo'
p6706
(lp6707
S'los angeles, california'
p6708
asS'indian'
p6709
(lp6710
S'indianapolis, indiana'
p6711
asS'birm'
p6712
(lp6713
S'birmingham, alabama'
p6714
asS'mesa, ari'
p6715
(lp6716
S'mesa, arizona'
p6717
asS'clevela'
p6718
(lp6719
S'cleveland, ohio'
p6720
asS'newark, ne'
p6721
(lp6722
S'newark, new jersey'
p6723
asS'dallas, '
p6724
(lp6725
S'dallas, texas'
p6726
asS'albuquerque, ne'
p6727
(lp6728
S'albuquerque, new mexico'
p6729
asS'cincinnati, oh'
p6730
(lp6731
S'cincinnati, ohio'
p6732
asS'ozh'
p6733
(lp6734
S'ozhukarai'
p6735
asS'durgapu'
p6736
(lp6737
S'durgapur'
p6738
asS'minneapolis, m'
p6739
(lp6740
S'minneapolis, minnesota'
p6741
asS'houston, tex'
p6742
(lp6743
S'houston, texas'
p6744
asS'charlotte, n'
p6745
(lp6746
S'charlotte, north carolina'
p6747
asS'lex'
p6748
(lp6749
S'lexington, kentucky'
p6750
asS'nizamab'
p6751
(lp6752
S'nizamabad'
p6753
asS'san francisc'
p6754
(lp6755
S'san francisco, california'
p6756
asS'cleveland, ohi'
p6757
(lp6758
S'cleveland, ohio'
p6759
asS'bakersfield'
p6760
(lp6761
S'bakersfield, california'
p6762
asS'honol'
p6763
(lp6764
S'honolulu cdp, hawaii'
p6765
asS'tulsa, okla'
p6766
(lp6767
S'tulsa, oklahoma'
p6768
asS'milwauke'
p6769
(lp6770
S'milwaukee, wisconsin'
p6771
asS'udaip'
p6772
(lp6773
S'udaipur'
p6774
asS'nagpu'
p6775
(lp6776
S'nagpur'
p6777
asS'chand'
p6778
(lp6779
S'chandigarh'
p6780
aS'chandler, arizona'
p6781
aS'chandrapur'
p6782
asS'jalan'
p6783
(lp6784
S'jalandhar'
p6785
asS'santa ana, calif'
p6786
(lp6787
S'santa ana, california'
p6788
asS'rive'
p6789
(lp6790
S'riverside, california'
p6791
asS'bangal'
p6792
(lp6793
S'bangalore'
p6794
asS'cincinnat'
p6795
(lp6796
S'cincinnati, ohio'
p6797
asS'win'
p6798
(lp6799
S'winston\xe2\x80\x93salem, north carolina'
p6800
asS'jalandha'
p6801
(lp6802
S'jalandhar'
p6803
asS'bosto'
p6804
(lp6805
S'boston, massachusetts'
p6806
asS'jacksonville,'
p6807
(lp6808
S'jacksonville, florida'
p6809
asS'aurangab'
p6810
(lp6811
S'aurangabad'
p6812
asS'wichi'
p6813
(lp6814
S'wichita, kansas'
p6815
asS'bakersfield,'
p6816
(lp6817
S'bakersfield, california'
p6818
asS'minneapol'
p6819
(lp6820
S'minneapolis, minnesota'
p6821
asS'cha'
p6822
(lp6823
S'chandigarh'
p6824
aS'chandler, arizona'
p6825
aS'chandrapur'
p6826
aS'charlotte, north carolina'
p6827
asS'che'
p6828
(lp6829
S'chennai'
p6830
aS'chesapeake, virginia'
p6831
asS'san bern'
p6832
(lp6833
S'san bernardino, california'
p6834
asS'waranga'
p6835
(lp6836
S'warangal'
p6837
asS'chi'
p6838
(lp6839
S'chicago, illinois'
p6840
aS'chittoor'
p6841
asS'saint petersburg, flori'
p6842
(lp6843
S'saint petersburg, florida'
p6844
asS'visakhapatna'
p6845
(lp6846
S'visakhapatnam'
p6847
asS'chandler, ariz'
p6848
(lp6849
S'chandler, arizona'
p6850
asS'chu'
p6851
(lp6852
S'chula vista, california'
p6853
asS'riverside, ca'
p6854
(lp6855
S'riverside, california'
p6856
asS'reno,'
p6857
(lp6858
S'reno, nevada'
p6859
asS'muzaff'
p6860
(lp6861
S'muzaffarnagar'
p6862
aS'muzaffarpur'
p6863
asS'laredo, '
p6864
(lp6865
S'laredo, texas'
p6866
asS'vijaya'
p6867
(lp6868
S'vijayanagaram'
p6869
aS'vijayawada'
p6870
asS'columbu'
p6871
(lp6872
S'columbus, ohio'
p6873
asS'louisvill'
p6874
(lp6875
S'louisville, kentucky'
p6876
asS'bakersfield, californ'
p6877
(lp6878
S'bakersfield, california'
p6879
asS'clevel'
p6880
(lp6881
S'cleveland, ohio'
p6882
asS'katiha'
p6883
(lp6884
S'katihar'
p6885
asS'bhavna'
p6886
(lp6887
S'bhavnagar'
p6888
asS'f'
p6889
(lp6890
S'faridabad'
p6891
aS'farrukhabad'
p6892
aS'firozabad'
p6893
aS'fort wayne, indiana'
p6894
aS'fort worth, texas'
p6895
aS'fremont, california'
p6896
aS'fresno, california'
p6897
asS'thir'
p6898
(lp6899
S'thiruvananthapuram'
p6900
asS'scottsdale, a'
p6901
(lp6902
S'scottsdale, arizona'
p6903
asS'alig'
p6904
(lp6905
S'aligarh'
p6906
asS'nashville, tennes'
p6907
(lp6908
S'nashville, tennessee'
p6909
asS'ahmedaba'
p6910
(lp6911
S'ahmedabad'
p6912
asS'phoe'
p6913
(lp6914
S'phoenix, arizona'
p6915
asS'honolulu cdp'
p6916
(lp6917
S'honolulu cdp, hawaii'
p6918
asS'shahjaha'
p6919
(lp6920
S'shahjahanpur'
p6921
asS'durham, nor'
p6922
(lp6923
S'durham, north carolina'
p6924
asS'housto'
p6925
(lp6926
S'houston, texas'
p6927
asS'meer'
p6928
(lp6929
S'meerut'
p6930
asS'mira-bhayan'
p6931
(lp6932
S'mira-bhayandar'
p6933
asS'san jose, cali'
p6934
(lp6935
S'san jose, california'
p6936
asS'bhatpa'
p6937
(lp6938
S'bhatpara'
p6939
asS'durham, '
p6940
(lp6941
S'durham, north carolina'
p6942
asS'gulba'
p6943
(lp6944
S'gulbarga'
p6945
asS'tam'
p6946
(lp6947
S'tampa, florida'
p6948
asS'nashville, tenne'
p6949
(lp6950
S'nashville, tennessee'
p6951
asS'tirunel'
p6952
(lp6953
S'tirunelveli'
p6954
asS'sri g'
p6955
(lp6956
S'sri ganganagar'
p6957
asS'hiale'
p6958
(lp6959
S'hialeah, florida'
p6960
asS'chicago, i'
p6961
(lp6962
S'chicago, illinois'
p6963
asS'miami, florid'
p6964
(lp6965
S'miami, florida'
p6966
asS'gurg'
p6967
(lp6968
S'gurgaon'
p6969
asS'panih'
p6970
(lp6971
S'panihati'
p6972
asS'sik'
p6973
(lp6974
S'sikar'
p6975
asS'anaheim,'
p6976
(lp6977
S'anaheim, california'
p6978
asS'philadelphia, pennsyl'
p6979
(lp6980
S'philadelphia, pennsylvania'
p6981
asS'durga'
p6982
(lp6983
S'durgapur'
p6984
asS'elur'
p6985
(lp6986
S'eluru'
p6987
asS'nashvi'
p6988
(lp6989
S'nashville, tennessee'
p6990
asS'los angeles, cali'
p6991
(lp6992
S'los angeles, california'
p6993
asS'fari'
p6994
(lp6995
S'faridabad'
p6996
asS'boston, massachusett'
p6997
(lp6998
S'boston, massachusetts'
p6999
asS'ludhia'
p7000
(lp7001
S'ludhiana'
p7002
asS'san ant'
p7003
(lp7004
S'san antonio, texas'
p7005
asS'tiruchirap'
p7006
(lp7007
S'tiruchirappalli'
p7008
asS'farr'
p7009
(lp7010
S'farrukhabad'
p7011
asS'corpus christi, te'
p7012
(lp7013
S'corpus christi, texas'
p7014
asS'louisville, k'
p7015
(lp7016
S'louisville, kentucky'
p7017
asS'muzaffarp'
p7018
(lp7019
S'muzaffarpur'
p7020
asS'phoenix,'
p7021
(lp7022
S'phoenix, arizona'
p7023
asS'minneapolis,'
p7024
(lp7025
S'minneapolis, minnesota'
p7026
asS'colorad'
p7027
(lp7028
S'colorado springs, colorado'
p7029
asS'muzaffarn'
p7030
(lp7031
S'muzaffarnagar'
p7032
asS'bakers'
p7033
(lp7034
S'bakersfield, california'
p7035
asS'washin'
p7036
(lp7037
S'washington, district of columbia'
p7038
asS'bathind'
p7039
(lp7040
S'bathinda'
p7041
asS'coimba'
p7042
(lp7043
S'coimbatore'
p7044
asS'thiruva'
p7045
(lp7046
S'thiruvananthapuram'
p7047
asS'fresno'
p7048
(lp7049
S'fresno, california'
p7050
asS'north dum'
p7051
(lp7052
S'north dumdum'
p7053
asS'milwaukee,'
p7054
(lp7055
S'milwaukee, wisconsin'
p7056
asS'san anton'
p7057
(lp7058
S'san antonio, texas'
p7059
asS'panip'
p7060
(lp7061
S'panipat'
p7062
asS'memphis, '
p7063
(lp7064
S'memphis, tennessee'
p7065
asS'charlotte, nor'
p7066
(lp7067
S'charlotte, north carolina'
p7068
asS'glen'
p7069
(lp7070
S'glendale, arizona'
p7071
asS'le'
p7072
(lp7073
S'lexington, kentucky'
p7074
asS'virginia beach, '
p7075
(lp7076
S'virginia beach, virginia'
p7077
asS'la'
p7078
(lp7079
S'laredo, texas'
p7080
aS'las vegas, nevada'
p7081
aS'latur'
p7082
asS'jodh'
p7083
(lp7084
S'jodhpur'
p7085
asS'li'
p7086
(lp7087
S'lincoln, nebraska'
p7088
asS'arlington, texa'
p7089
(lp7090
S'arlington, texas'
p7091
asS'bakersfi'
p7092
(lp7093
S'bakersfield, california'
p7094
asS'gandh'
p7095
(lp7096
S'gandhidham'
p7097
aS'gandhinagar'
p7098
asS'nashville, tennesse'
p7099
(lp7100
S'nashville, tennessee'
p7101
asS'greensboro, north ca'
p7102
(lp7103
S'greensboro, north carolina'
p7104
asS'kanpu'
p7105
(lp7106
S'kanpur'
p7107
asS'san bernardino, califo'
p7108
(lp7109
S'san bernardino, california'
p7110
asS'san diego, californ'
p7111
(lp7112
S'san diego, california'
p7113
asS'bhubanesw'
p7114
(lp7115
S'bhubaneswar'
p7116
asS'colorado sp'
p7117
(lp7118
S'colorado springs, colorado'
p7119
asS'omaha, ne'
p7120
(lp7121
S'omaha, nebraska'
p7122
asS'nashvil'
p7123
(lp7124
S'nashville, tennessee'
p7125
asS'town o'
p7126
(lp7127
S'town of gilbert, arizona'
p7128
asS'dav'
p7129
(lp7130
S'davanagere'
p7131
asS'saint paul, minnes'
p7132
(lp7133
S'saint paul, minnesota'
p7134
asS'dar'
p7135
(lp7136
S'darbhanga'
p7137
asS'birmingham, al'
p7138
(lp7139
S'birmingham, alabama'
p7140
asS'new york, new '
p7141
(lp7142
S'new york, new york'
p7143
asS'chandrap'
p7144
(lp7145
S'chandrapur'
p7146
asS'detroit, mi'
p7147
(lp7148
S'detroit, michigan'
p7149
asS'stockto'
p7150
(lp7151
S'stockton, california'
p7152
asS'san diego, ca'
p7153
(lp7154
S'san diego, california'
p7155
asS'chicago, illinoi'
p7156
(lp7157
S'chicago, illinois'
p7158
asS'kirari suleman nag'
p7159
(lp7160
S'kirari suleman nagar'
p7161
asS'detroit, michiga'
p7162
(lp7163
S'detroit, michigan'
p7164
asS'saharanp'
p7165
(lp7166
S'saharanpur'
p7167
asS'fresno, calif'
p7168
(lp7169
S'fresno, california'
p7170
asS'pittsburgh, pennsylvan'
p7171
(lp7172
S'pittsburgh, pennsylvania'
p7173
asS'albuquerque, new mexi'
p7174
(lp7175
S'albuquerque, new mexico'
p7176
asS'madison, wisconsi'
p7177
(lp7178
S'madison, wisconsin'
p7179
asS'pitts'
p7180
(lp7181
S'pittsburgh, pennsylvania'
p7182
asS'vijayanagar'
p7183
(lp7184
S'vijayanagaram'
p7185
asS'hubballi-dharw'
p7186
(lp7187
S'hubballi-dharwad'
p7188
asS'austin, tex'
p7189
(lp7190
S'austin, texas'
p7191
asS'vijayanagara'
p7192
(lp7193
S'vijayanagaram'
p7194
asS'albuquerque, new me'
p7195
(lp7196
S'albuquerque, new mexico'
p7197
asS'chandle'
p7198
(lp7199
S'chandler, arizona'
p7200
asS'rew'
p7201
(lp7202
S'rewa'
p7203
asS'ren'
p7204
(lp7205
S'reno, nevada'
p7206
asS'norfolk, vir'
p7207
(lp7208
S'norfolk, virginia'
p7209
asS'denver, col'
p7210
(lp7211
S'denver, colorado'
p7212
asS'los angeles, c'
p7213
(lp7214
S'los angeles, california'
p7215
asS'gorakhp'
p7216
(lp7217
S'gorakhpur'
p7218
asS'st. loui'
p7219
(lp7220
S'st. louis, missouri'
p7221
asS'santa ana, califor'
p7222
(lp7223
S'santa ana, california'
p7224
asS'portland, '
p7225
(lp7226
S'portland, oregon'
p7227
asS'navi mumb'
p7228
(lp7229
S'navi mumbai'
p7230
asS'g'
p7231
(lp7232
S'gandhidham'
p7233
aS'gandhinagar'
p7234
aS'garland, texas'
p7235
aS'gaya'
p7236
aS'ghaziabad'
p7237
aS'glendale, arizona'
p7238
aS'gopalpur'
p7239
aS'gorakhpur'
p7240
aS'greensboro, north carolina'
p7241
aS'gulbarga'
p7242
aS'guntur'
p7243
aS'gurgaon'
p7244
aS'guwahati'
p7245
aS'gwalior'
p7246
asS'san diego, calif'
p7247
(lp7248
S'san diego, california'
p7249
asS'bathin'
p7250
(lp7251
S'bathinda'
p7252
asS'coimb'
p7253
(lp7254
S'coimbatore'
p7255
asS'garla'
p7256
(lp7257
S'garland, texas'
p7258
asS'columbus,'
p7259
(lp7260
S'columbus, ohio'
p7261
asS'austin'
p7262
(lp7263
S'austin, texas'
p7264
asS'south'
p7265
(lp7266
S'south dumdum'
p7267
asS'memphis, ten'
p7268
(lp7269
S'memphis, tennessee'
p7270
asS'chandrapu'
p7271
(lp7272
S'chandrapur'
p7273
asS'glendale, ari'
p7274
(lp7275
S'glendale, arizona'
p7276
asS'thoothu'
p7277
(lp7278
S'thoothukudi'
p7279
asS'riverside, califor'
p7280
(lp7281
S'riverside, california'
p7282
asS'sambalpu'
p7283
(lp7284
S'sambalpur'
p7285
asS'bakersfield, californi'
p7286
(lp7287
S'bakersfield, california'
p7288
asS'sacr'
p7289
(lp7290
S'sacramento, california'
p7291
asS'gorakhpu'
p7292
(lp7293
S'gorakhpur'
p7294
asS'san jo'
p7295
(lp7296
S'san jose, california'
p7297
asS'fort worth, tex'
p7298
(lp7299
S'fort worth, texas'
p7300
asS'seattle, w'
p7301
(lp7302
S'seattle, washington'
p7303
asS'balti'
p7304
(lp7305
S'baltimore, maryland'
p7306
asS'new york'
p7307
(lp7308
S'new york, new york'
p7309
asS'charlotte, '
p7310
(lp7311
S'charlotte, north carolina'
p7312
asS'vijayawa'
p7313
(lp7314
S'vijayawada'
p7315
asS'jersey city, new'
p7316
(lp7317
S'jersey city, new jersey'
p7318
asS'north las vegas, ne'
p7319
(lp7320
S'north las vegas, nevada'
p7321
asS'pimpri-chinchw'
p7322
(lp7323
S'pimpri-chinchwad'
p7324
asS'el paso,'
p7325
(lp7326
S'el paso, texas'
p7327
asS'parbhan'
p7328
(lp7329
S'parbhani'
p7330
asS'rajpur sonarpu'
p7331
(lp7332
S'rajpur sonarpur'
p7333
asS'uda'
p7334
(lp7335
S'udaipur'
p7336
asS'chandiga'
p7337
(lp7338
S'chandigarh'
p7339
asS'seattle, washingt'
p7340
(lp7341
S'seattle, washington'
p7342
asS'san bernardino,'
p7343
(lp7344
S'san bernardino, california'
p7345
asS'scottsdale, arizon'
p7346
(lp7347
S'scottsdale, arizona'
p7348
asS'bel'
p7349
(lp7350
S'belgaum'
p7351
aS'bellary'
p7352
asS'raleigh, nort'
p7353
(lp7354
S'raleigh, north carolina'
p7355
asS'beg'
p7356
(lp7357
S'begusarai'
p7358
asS'anaheim'
p7359
(lp7360
S'anaheim, california'
p7361
asS'winst'
p7362
(lp7363
S'winston\xe2\x80\x93salem, north carolina'
p7364
asS'tucson,'
p7365
(lp7366
S'tucson, arizona'
p7367
asS'ber'
p7368
(lp7369
S'berhampur'
p7370
asS'bare'
p7371
(lp7372
S'bareilly'
p7373
asS'san francisco, califo'
p7374
(lp7375
S'san francisco, california'
p7376
asS'icha'
p7377
(lp7378
S'ichalkaranji'
p7379
asS'buffalo, ne'
p7380
(lp7381
S'buffalo, new york'
p7382
asS'kozhiko'
p7383
(lp7384
S'kozhikode'
p7385
asS'pimpri-chinc'
p7386
(lp7387
S'pimpri-chinchwad'
p7388
asS'bakersfield, califo'
p7389
(lp7390
S'bakersfield, california'
p7391
asS'sacra'
p7392
(lp7393
S'sacramento, california'
p7394
asS'san ber'
p7395
(lp7396
S'san bernardino, california'
p7397
asS'san die'
p7398
(lp7399
S'san diego, california'
p7400
asS'rajk'
p7401
(lp7402
S'rajkot'
p7403
asS'mil'
p7404
(lp7405
S'milwaukee, wisconsin'
p7406
asS'orlando, florid'
p7407
(lp7408
S'orlando, florida'
p7409
asS'dallas'
p7410
(lp7411
S'dallas, texas'
p7412
asS'chandigar'
p7413
(lp7414
S'chandigarh'
p7415
asS'rour'
p7416
(lp7417
S'rourkela'
p7418
aS'rourkela'
p7419
asS'washington, district '
p7420
(lp7421
S'washington, district of columbia'
p7422
asS'houston,'
p7423
(lp7424
S'houston, texas'
p7425
asS'mir'
p7426
(lp7427
S'mira-bhayandar'
p7428
aS'mirzapur'
p7429
asS'town '
p7430
(lp7431
S'town of gilbert, arizona'
p7432
asS'irvine, calif'
p7433
(lp7434
S'irvine, california'
p7435
asS'honolulu c'
p7436
(lp7437
S'honolulu cdp, hawaii'
p7438
asS'gandhina'
p7439
(lp7440
S'gandhinagar'
p7441
asS'kolkat'
p7442
(lp7443
S'kolkata'
p7444
asS'visa'
p7445
(lp7446
S'visakhapatnam'
p7447
asS'karawal naga'
p7448
(lp7449
S'karawal nagar'
p7450
asS'kalyan-dombival'
p7451
(lp7452
S'kalyan-dombivali'
p7453
asS'tucso'
p7454
(lp7455
S'tucson, arizona'
p7456
asS'chesapea'
p7457
(lp7458
S'chesapeake, virginia'
p7459
asS'sa'
p7460
(lp7461
S'sacramento, california'
p7462
aS'sagar'
p7463
aS'saharanpur'
p7464
aS'saint paul, minnesota'
p7465
aS'saint petersburg, florida'
p7466
aS'salem'
p7467
aS'sambalpur'
p7468
aS'san antonio, texas'
p7469
aS'san bernardino, california'
p7470
aS'san diego, california'
p7471
aS'san francisco, california'
p7472
aS'san jose, california'
p7473
aS'san juan, puerto rico'
p7474
aS'sangli-miraj & kupwad'
p7475
aS'santa ana, california'
p7476
aS'satara'
p7477
aS'satna'
p7478
asS'chandler, ar'
p7479
(lp7480
S'chandler, arizona'
p7481
asS'begusara'
p7482
(lp7483
S'begusarai'
p7484
asS'thriss'
p7485
(lp7486
S'thrissur'
p7487
asS'morada'
p7488
(lp7489
S'moradabad'
p7490
asS'denv'
p7491
(lp7492
S'denver, colorado'
p7493
asS'saint paul, minneso'
p7494
(lp7495
S'saint paul, minnesota'
p7496
asS'fort worth, te'
p7497
(lp7498
S'fort worth, texas'
p7499
asS'los angeles'
p7500
(lp7501
S'los angeles, california'
p7502
asS'buffalo, new'
p7503
(lp7504
S'buffalo, new york'
p7505
asS'indo'
p7506
(lp7507
S'indore'
p7508
asS'las vegas, ne'
p7509
(lp7510
S'las vegas, nevada'
p7511
asS'gandhinaga'
p7512
(lp7513
S'gandhinagar'
p7514
asS'son'
p7515
(lp7516
S'sonipat'
p7517
asS'san jose, calif'
p7518
(lp7519
S'san jose, california'
p7520
asS'nagp'
p7521
(lp7522
S'nagpur'
p7523
asS'las vegas, neva'
p7524
(lp7525
S'las vegas, nevada'
p7526
asS'baton rouge, '
p7527
(lp7528
S'baton rouge, louisiana'
p7529
asS'hubballi-d'
p7530
(lp7531
S'hubballi-dharwad'
p7532
asS'wins'
p7533
(lp7534
S'winston\xe2\x80\x93salem, north carolina'
p7535
asS'rajpur so'
p7536
(lp7537
S'rajpur sonarpur'
p7538
asS'irv'
p7539
(lp7540
S'irvine, california'
p7541
aS'irving, texas'
p7542
asS'santa ana, californi'
p7543
(lp7544
S'santa ana, california'
p7545
asS'winston\xe2\x80\x93salem, north '
p7546
(lp7547
S'winston\xe2\x80\x93salem, north carolina'
p7548
asS'san jose, c'
p7549
(lp7550
S'san jose, california'
p7551
asS'tulsa, oklahom'
p7552
(lp7553
S'tulsa, oklahoma'
p7554
asS'oklahoma ci'
p7555
(lp7556
S'oklahoma city, oklahoma'
p7557
asS'satar'
p7558
(lp7559
S'satara'
p7560
asS'memphis'
p7561
(lp7562
S'memphis, tennessee'
p7563
asS'reno, '
p7564
(lp7565
S'reno, nevada'
p7566
asS'los angeles, calif'
p7567
(lp7568
S'los angeles, california'
p7569
asS'jal'
p7570
(lp7571
S'jalandhar'
p7572
aS'jalgaon'
p7573
aS'jalna'
p7574
asS'jam'
p7575
(lp7576
S'jammu'
p7577
aS'jamnagar'
p7578
aS'jamshedpur'
p7579
asS'tiru'
p7580
(lp7581
S'tiruchirappalli'
p7582
aS'tirunelveli'
p7583
aS'tirupati'
p7584
aS'tiruppur'
p7585
aS'tiruvottiyur'
p7586
asS'jai'
p7587
(lp7588
S'jaipur'
p7589
asS'avad'
p7590
(lp7591
S'avadi'
p7592
asS'kolhap'
p7593
(lp7594
S'kolhapur'
p7595
asS'jab'
p7596
(lp7597
S'jabalpur'
p7598
asS'jac'
p7599
(lp7600
S'jacksonville, florida'
p7601
asS'minneapolis, minne'
p7602
(lp7603
S'minneapolis, minnesota'
p7604
asS'tirupat'
p7605
(lp7606
S'tirupati'
p7607
asS'thiruvananthapura'
p7608
(lp7609
S'thiruvananthapuram'
p7610
asS'san di'
p7611
(lp7612
S'san diego, california'
p7613
asS'luckn'
p7614
(lp7615
S'lucknow'
p7616
asS'chesapeake, virgin'
p7617
(lp7618
S'chesapeake, virginia'
p7619
asS'st. louis, mi'
p7620
(lp7621
S'st. louis, missouri'
p7622
asS'harid'
p7623
(lp7624
S'haridwar'
p7625
asS'h'
p7626
(lp7627
S'hapur'
p7628
aS'haridwar'
p7629
aS'henderson, nevada'
p7630
aS'hialeah, florida'
p7631
aS'honolulu cdp, hawaii'
p7632
aS'houston, texas'
p7633
aS'howrah'
p7634
aS'hubballi-dharwad'
p7635
aS'hyderabad'
p7636
asS'anchorage, ala'
p7637
(lp7638
S'anchorage, alaska'
p7639
asS'sha'
p7640
(lp7641
S'shahjahanpur'
p7642
asS'glendale'
p7643
(lp7644
S'glendale, arizona'
p7645
asS'shi'
p7646
(lp7647
S'shimla'
p7648
aS'shivamogga'
p7649
asS'los angeles, ca'
p7650
(lp7651
S'los angeles, california'
p7652
asS'winston\xe2\x80\x93salem, north caroli'
p7653
(lp7654
S'winston\xe2\x80\x93salem, north carolina'
p7655
asS'visakha'
p7656
(lp7657
S'visakhapatnam'
p7658
asS'scottsdale,'
p7659
(lp7660
S'scottsdale, arizona'
p7661
asS'detroit, m'
p7662
(lp7663
S'detroit, michigan'
p7664
asS'honolulu cdp,'
p7665
(lp7666
S'honolulu cdp, hawaii'
p7667
asS'shahja'
p7668
(lp7669
S'shahjahanpur'
p7670
asS'el paso, te'
p7671
(lp7672
S'el paso, texas'
p7673
asS'minneapolis, minn'
p7674
(lp7675
S'minneapolis, minnesota'
p7676
asS'guwahat'
p7677
(lp7678
S'guwahati'
p7679
asS'buffalo,'
p7680
(lp7681
S'buffalo, new york'
p7682
asS'madi'
p7683
(lp7684
S'madison, wisconsin'
p7685
asS'orlan'
p7686
(lp7687
S'orlando, florida'
p7688
asS'jacksonville, f'
p7689
(lp7690
S'jacksonville, florida'
p7691
asS'wa'
p7692
(lp7693
S'warangal'
p7694
aS'washington, district of columbia'
p7695
asS'ichalkaranj'
p7696
(lp7697
S'ichalkaranji'
p7698
asS'fremo'
p7699
(lp7700
S'fremont, california'
p7701
asS'new york, ne'
p7702
(lp7703
S'new york, new york'
p7704
asS'lub'
p7705
(lp7706
S'lubbock, texas'
p7707
asS'luc'
p7708
(lp7709
S'lucknow'
p7710
asS'lud'
p7711
(lp7712
S'ludhiana'
p7713
asS'vasai-vir'
p7714
(lp7715
S'vasai-virar'
p7716
asS'long beach, '
p7717
(lp7718
S'long beach, california'
p7719
asS'rajpur sonar'
p7720
(lp7721
S'rajpur sonarpur'
p7722
asS'corpus christi,'
p7723
(lp7724
S'corpus christi, texas'
p7725
asS'raleigh, north caroli'
p7726
(lp7727
S'raleigh, north carolina'
p7728
asS'newa'
p7729
(lp7730
S'newark, new jersey'
p7731
asS'bilas'
p7732
(lp7733
S'bilaspur'
p7734
asS'mira-bhayanda'
p7735
(lp7736
S'mira-bhayandar'
p7737
asS'jod'
p7738
(lp7739
S'jodhpur'
p7740
asS'gandhidh'
p7741
(lp7742
S'gandhidham'
p7743
asS'toled'
p7744
(lp7745
S'toledo, ohio'
p7746
asS'tiruchirappal'
p7747
(lp7748
S'tiruchirappalli'
p7749
asS'cleveland,'
p7750
(lp7751
S'cleveland, ohio'
p7752
asS'ramp'
p7753
(lp7754
S'rampur'
p7755
asS'eta'
p7756
(lp7757
S'etawah'
p7758
asS'lo'
p7759
(lp7760
S'long beach, california'
p7761
aS'loni'
p7762
aS'los angeles, california'
p7763
aS'louisville, kentucky'
p7764
asS'norfolk, virgi'
p7765
(lp7766
S'norfolk, virginia'
p7767
asS'rama'
p7768
(lp7769
S'ramagundam'
p7770
asS'jersey'
p7771
(lp7772
S'jersey city, new jersey'
p7773
asS'san franci'
p7774
(lp7775
S'san francisco, california'
p7776
asS'amrava'
p7777
(lp7778
S'amravati'
p7779
asS'ci'
p7780
(lp7781
S'cincinnati, ohio'
p7782
asS'ch'
p7783
(lp7784
S'chandigarh'
p7785
aS'chandler, arizona'
p7786
aS'chandrapur'
p7787
aS'charlotte, north carolina'
p7788
aS'chennai'
p7789
aS'chesapeake, virginia'
p7790
aS'chicago, illinois'
p7791
aS'chittoor'
p7792
aS'chula vista, california'
p7793
asS'co'
p7794
(lp7795
S'coimbatore'
p7796
aS'colorado springs, colorado'
p7797
aS'columbus, ohio'
p7798
aS'corpus christi, texas'
p7799
asS'cl'
p7800
(lp7801
S'cleveland, ohio'
p7802
asS'dallas,'
p7803
(lp7804
S'dallas, texas'
p7805
asS'saharanpu'
p7806
(lp7807
S'saharanpur'
p7808
asS'kirari sul'
p7809
(lp7810
S'kirari suleman nagar'
p7811
asS'buffalo, new y'
p7812
(lp7813
S'buffalo, new york'
p7814
asS'oakland'
p7815
(lp7816
S'oakland, california'
p7817
asS'cu'
p7818
(lp7819
S'cuttack'
p7820
asS'pim'
p7821
(lp7822
S'pimpri-chinchwad'
p7823
asS'rajahmundr'
p7824
(lp7825
S'rajahmundry'
p7826
asS'philadelphia, pennsylva'
p7827
(lp7828
S'philadelphia, pennsylvania'
p7829
asS'washington, d'
p7830
(lp7831
S'washington, district of columbia'
p7832
asS'fremont, cal'
p7833
(lp7834
S'fremont, california'
p7835
asS'charlotte, north carolin'
p7836
(lp7837
S'charlotte, north carolina'
p7838
asS'firoz'
p7839
(lp7840
S'firozabad'
p7841
asS'lu'
p7842
(lp7843
S'lubbock, texas'
p7844
aS'lucknow'
p7845
aS'ludhiana'
p7846
asS'san juan, '
p7847
(lp7848
S'san juan, puerto rico'
p7849
asS'jersey city, '
p7850
(lp7851
S'jersey city, new jersey'
p7852
asS'newark, new '
p7853
(lp7854
S'newark, new jersey'
p7855
asS'atlanta'
p7856
(lp7857
S'atlanta, georgia'
p7858
asS'stockton, califo'
p7859
(lp7860
S'stockton, california'
p7861
asS'scottsdale, arizo'
p7862
(lp7863
S'scottsdale, arizona'
p7864
asS'town of gilb'
p7865
(lp7866
S'town of gilbert, arizona'
p7867
asS'aliga'
p7868
(lp7869
S'aligarh'
p7870
asS'hubb'
p7871
(lp7872
S'hubballi-dharwad'
p7873
asS'oklahoma city, oklahom'
p7874
(lp7875
S'oklahoma city, oklahoma'
p7876
asS'as'
p7877
(lp7878
S'asansol'
p7879
asS'baton rouge, l'
p7880
(lp7881
S'baton rouge, louisiana'
p7882
asS'agar'
p7883
(lp7884
S'agartala'
p7885
asS'karawal '
p7886
(lp7887
S'karawal nagar'
p7888
asS'patial'
p7889
(lp7890
S'patiala'
p7891
asS'jalga'
p7892
(lp7893
S'jalgaon'
p7894
asS'washingt'
p7895
(lp7896
S'washington, district of columbia'
p7897
asS'gulbarg'
p7898
(lp7899
S'gulbarga'
p7900
asS'kolhapu'
p7901
(lp7902
S'kolhapur'
p7903
asS'columbus, o'
p7904
(lp7905
S'columbus, ohio'
p7906
asS'newark,'
p7907
(lp7908
S'newark, new jersey'
p7909
asS'thoothuk'
p7910
(lp7911
S'thoothukudi'
p7912
asS'mira-bha'
p7913
(lp7914
S'mira-bhayandar'
p7915
asS'arlingto'
p7916
(lp7917
S'arlington, texas'
p7918
asS'virg'
p7919
(lp7920
S'virginia beach, virginia'
p7921
asS'ava'
p7922
(lp7923
S'avadi'
p7924
asS'bhiwand'
p7925
(lp7926
S'bhiwandi'
p7927
asS'tirunelv'
p7928
(lp7929
S'tirunelveli'
p7930
asS'asans'
p7931
(lp7932
S'asansol'
p7933
asS'henderson, nev'
p7934
(lp7935
S'henderson, nevada'
p7936
asS'warang'
p7937
(lp7938
S'warangal'
p7939
asS'cinc'
p7940
(lp7941
S'cincinnati, ohio'
p7942
asS'dal'
p7943
(lp7944
S'dallas, texas'
p7945
asS'san antonio, tex'
p7946
(lp7947
S'san antonio, texas'
p7948
asS'honolulu '
p7949
(lp7950
S'honolulu cdp, hawaii'
p7951
asS'riversi'
p7952
(lp7953
S'riverside, california'
p7954
asS'karawal na'
p7955
(lp7956
S'karawal nagar'
p7957
asS'fremont, calif'
p7958
(lp7959
S'fremont, california'
p7960
asS'philadelphia, pennsylvan'
p7961
(lp7962
S'philadelphia, pennsylvania'
p7963
asS'laredo,'
p7964
(lp7965
S'laredo, texas'
p7966
asS'seattle, '
p7967
(lp7968
S'seattle, washington'
p7969
asS'phi'
p7970
(lp7971
S'philadelphia, pennsylvania'
p7972
asS'ball'
p7973
(lp7974
S'bally'
p7975
asS'pho'
p7976
(lp7977
S'phoenix, arizona'
p7978
asS'washingto'
p7979
(lp7980
S'washington, district of columbia'
p7981
asS'guntu'
p7982
(lp7983
S'guntur'
p7984
asS'denver, '
p7985
(lp7986
S'denver, colorado'
p7987
asS'kirari sulema'
p7988
(lp7989
S'kirari suleman nagar'
p7990
asS'faridab'
p7991
(lp7992
S'faridabad'
p7993
asS'balt'
p7994
(lp7995
S'baltimore, maryland'
p7996
asS'san diego, cal'
p7997
(lp7998
S'san diego, california'
p7999
asS'baranag'
p8000
(lp8001
S'baranagar'
p8002
asS'i'
p8003
(lp8004
S'ichalkaranji'
p8005
aS'imphal'
p8006
aS'indianapolis, indiana'
p8007
aS'indore'
p8008
aS'irvine, california'
p8009
aS'irving, texas'
p8010
asS'phila'
p8011
(lp8012
S'philadelphia, pennsylvania'
p8013
asS'detroit, '
p8014
(lp8015
S'detroit, michigan'
p8016
asS'baltimore, mary'
p8017
(lp8018
S'baltimore, maryland'
p8019
asS'albuquerque,'
p8020
(lp8021
S'albuquerque, new mexico'
p8022
asS'new orlea'
p8023
(lp8024
S'new orleans, louisiana'
p8025
asS'st. l'
p8026
(lp8027
S'st. louis, missouri'
p8028
asS'kamarha'
p8029
(lp8030
S'kamarhati'
p8031
asS'garland, tex'
p8032
(lp8033
S'garland, texas'
p8034
asS'aurora, c'
p8035
(lp8036
S'aurora, colorado'
p8037
asS'philadelphia, penns'
p8038
(lp8039
S'philadelphia, pennsylvania'
p8040
asS'tirune'
p8041
(lp8042
S'tirunelveli'
p8043
asS'seatt'
p8044
(lp8045
S'seattle, washington'
p8046
asS'lexington, kentu'
p8047
(lp8048
S'lexington, kentucky'
p8049
asS'long beach, calif'
p8050
(lp8051
S'long beach, california'
p8052
asS'raleigh, north caro'
p8053
(lp8054
S'raleigh, north carolina'
p8055
asS'jamna'
p8056
(lp8057
S'jamnagar'
p8058
asS'cincinn'
p8059
(lp8060
S'cincinnati, ohio'
p8061
asS'varan'
p8062
(lp8063
S'varanasi'
p8064
asS'bikane'
p8065
(lp8066
S'bikaner'
p8067
asS'san berna'
p8068
(lp8069
S'san bernardino, california'
p8070
asS'berha'
p8071
(lp8072
S'berhampur'
p8073
asS'los '
p8074
(lp8075
S'los angeles, california'
p8076
asS'hubballi-dhar'
p8077
(lp8078
S'hubballi-dharwad'
p8079
asS'raleigh, north'
p8080
(lp8081
S'raleigh, north carolina'
p8082
asS'riverside'
p8083
(lp8084
S'riverside, california'
p8085
asS'winston\xe2\x80\x93salem, north carolin'
p8086
(lp8087
S'winston\xe2\x80\x93salem, north carolina'
p8088
asS'adi'
p8089
(lp8090
S'adilabad'
p8091
asS'washing'
p8092
(lp8093
S'washington, district of columbia'
p8094
asS'dehrad'
p8095
(lp8096
S'dehradun'
p8097
asS'scottsd'
p8098
(lp8099
S'scottsdale, arizona'
p8100
asS'scottsda'
p8101
(lp8102
S'scottsdale, arizona'
p8103
asS'louisville, kentuck'
p8104
(lp8105
S'louisville, kentucky'
p8106
asS'lincoln,'
p8107
(lp8108
S'lincoln, nebraska'
p8109
asS'sonip'
p8110
(lp8111
S'sonipat'
p8112
asS'san juan, puer'
p8113
(lp8114
S'san juan, puerto rico'
p8115
asS'lincoln'
p8116
(lp8117
S'lincoln, nebraska'
p8118
asS'kansas city, mis'
p8119
(lp8120
S'kansas city, missouri'
p8121
asS'north las vegas, neva'
p8122
(lp8123
S'north las vegas, nevada'
p8124
asS'miami'
p8125
(lp8126
S'miami, florida'
p8127
asS'biha'
p8128
(lp8129
S'bihar sharif'
p8130
asS'north las vegas, nevad'
p8131
(lp8132
S'north las vegas, nevada'
p8133
asS'austin, '
p8134
(lp8135
S'austin, texas'
p8136
asS'newark, new j'
p8137
(lp8138
S'newark, new jersey'
p8139
asS'amrits'
p8140
(lp8141
S'amritsar'
p8142
asS'new orleans, loui'
p8143
(lp8144
S'new orleans, louisiana'
p8145
asS'chica'
p8146
(lp8147
S'chicago, illinois'
p8148
asS'anaheim, californi'
p8149
(lp8150
S'anaheim, california'
p8151
asS'kansas city, miss'
p8152
(lp8153
S'kansas city, missouri'
p8154
asS'portla'
p8155
(lp8156
S'portland, oregon'
p8157
asS'houston, '
p8158
(lp8159
S'houston, texas'
p8160
asS'glendale, a'
p8161
(lp8162
S'glendale, arizona'
p8163
asS'cleveland'
p8164
(lp8165
S'cleveland, ohio'
p8166
asS'bhopa'
p8167
(lp8168
S'bhopal'
p8169
asS'tirun'
p8170
(lp8171
S'tirunelveli'
p8172
asS'stockton, californ'
p8173
(lp8174
S'stockton, california'
p8175
asS'sonipa'
p8176
(lp8177
S'sonipat'
p8178
asS'santa ana, californ'
p8179
(lp8180
S'santa ana, california'
p8181
asS'saint petersburg, f'
p8182
(lp8183
S'saint petersburg, florida'
p8184
asS'karimn'
p8185
(lp8186
S'karimnagar'
p8187
asS'norfo'
p8188
(lp8189
S'norfolk, virginia'
p8190
asS'rale'
p8191
(lp8192
S'raleigh, north carolina'
p8193
asS'new orleans, louis'
p8194
(lp8195
S'new orleans, louisiana'
p8196
asS'glendal'
p8197
(lp8198
S'glendale, arizona'
p8199
asS'allahab'
p8200
(lp8201
S'allahabad'
p8202
asS'kurno'
p8203
(lp8204
S'kurnool'
p8205
asS'riverside, californi'
p8206
(lp8207
S'riverside, california'
p8208
asS'new yor'
p8209
(lp8210
S'new york, new york'
p8211
asS'lincoln, nebra'
p8212
(lp8213
S'lincoln, nebraska'
p8214
asS'norfolk,'
p8215
(lp8216
S'norfolk, virginia'
p8217
asS'corpus c'
p8218
(lp8219
S'corpus christi, texas'
p8220
asS'dhanb'
p8221
(lp8222
S'dhanbad'
p8223
asS'columb'
p8224
(lp8225
S'columbus, ohio'
p8226
asS'glendale, ariz'
p8227
(lp8228
S'glendale, arizona'
p8229
asS'anchorage'
p8230
(lp8231
S'anchorage, alaska'
p8232
asS'hyderab'
p8233
(lp8234
S'hyderabad'
p8235
asS'fort worth'
p8236
(lp8237
S'fort worth, texas'
p8238
asS'buffalo, new yor'
p8239
(lp8240
S'buffalo, new york'
p8241
asS'colorado spri'
p8242
(lp8243
S'colorado springs, colorado'
p8244
asS'newark, n'
p8245
(lp8246
S'newark, new jersey'
p8247
asS'chula vista, c'
p8248
(lp8249
S'chula vista, california'
p8250
asS'greensboro'
p8251
(lp8252
S'greensboro, north carolina'
p8253
asS'kirari'
p8254
(lp8255
S'kirari suleman nagar'
p8256
asS'vijayan'
p8257
(lp8258
S'vijayanagaram'
p8259
asS'washington'
p8260
(lp8261
S'washington, district of columbia'
p8262
asS'glend'
p8263
(lp8264
S'glendale, arizona'
p8265
asS'chula'
p8266
(lp8267
S'chula vista, california'
p8268
asS'el p'
p8269
(lp8270
S'el paso, texas'
p8271
asS'chicago, illino'
p8272
(lp8273
S'chicago, illinois'
p8274
asS'albuquerque, new '
p8275
(lp8276
S'albuquerque, new mexico'
p8277
asS'charlotte, north caro'
p8278
(lp8279
S'charlotte, north carolina'
p8280
asS'lubbock, tex'
p8281
(lp8282
S'lubbock, texas'
p8283
asS'santa '
p8284
(lp8285
S'santa ana, california'
p8286
asS'pimpri-chin'
p8287
(lp8288
S'pimpri-chinchwad'
p8289
asS'colorado springs, colo'
p8290
(lp8291
S'colorado springs, colorado'
p8292
asS'vad'
p8293
(lp8294
S'vadodara'
p8295
asS'san fran'
p8296
(lp8297
S'san francisco, california'
p8298
asS'reno, neva'
p8299
(lp8300
S'reno, nevada'
p8301
asS'lexington, ke'
p8302
(lp8303
S'lexington, kentucky'
p8304
asS'var'
p8305
(lp8306
S'varanasi'
p8307
asS'vas'
p8308
(lp8309
S'vasai-virar'
p8310
asS'jamshedp'
p8311
(lp8312
S'jamshedpur'
p8313
asS'laredo'
p8314
(lp8315
S'laredo, texas'
p8316
asS'north l'
p8317
(lp8318
S'north las vegas, nevada'
p8319
asS'hy'
p8320
(lp8321
S'hyderabad'
p8322
asS'north'
p8323
(lp8324
S'north dumdum'
p8325
aS'north las vegas, nevada'
p8326
asS'san jose, californ'
p8327
(lp8328
S'san jose, california'
p8329
asS'rajah'
p8330
(lp8331
S'rajahmundry'
p8332
asS'north d'
p8333
(lp8334
S'north dumdum'
p8335
asS'begusa'
p8336
(lp8337
S'begusarai'
p8338
asS'hu'
p8339
(lp8340
S'hubballi-dharwad'
p8341
asS'saint peters'
p8342
(lp8343
S'saint petersburg, florida'
p8344
asS'hi'
p8345
(lp8346
S'hialeah, florida'
p8347
asS'ho'
p8348
(lp8349
S'honolulu cdp, hawaii'
p8350
aS'houston, texas'
p8351
aS'howrah'
p8352
asS'ha'
p8353
(lp8354
S'hapur'
p8355
aS'haridwar'
p8356
asS'buf'
p8357
(lp8358
S'buffalo, new york'
p8359
asS'ph'
p8360
(lp8361
S'philadelphia, pennsylvania'
p8362
aS'phoenix, arizona'
p8363
asS'cleveland, oh'
p8364
(lp8365
S'cleveland, ohio'
p8366
asS'he'
p8367
(lp8368
S'henderson, nevada'
p8369
asS'town of gil'
p8370
(lp8371
S'town of gilbert, arizona'
p8372
asS'j'
p8373
(lp8374
S'jabalpur'
p8375
aS'jacksonville, florida'
p8376
aS'jaipur'
p8377
aS'jalandhar'
p8378
aS'jalgaon'
p8379
aS'jalna'
p8380
aS'jammu'
p8381
aS'jamnagar'
p8382
aS'jamshedpur'
p8383
aS'jersey city, new jersey'
p8384
aS'jhansi'
p8385
aS'jodhpur'
p8386
aS'junagadh'
p8387
asS'darbhan'
p8388
(lp8389
S'darbhanga'
p8390
asS'madu'
p8391
(lp8392
S'madurai'
p8393
asS'pl'
p8394
(lp8395
S'plano, texas'
p8396
asS'virginia beach, virgi'
p8397
(lp8398
S'virginia beach, virginia'
p8399
asS'fremont, c'
p8400
(lp8401
S'fremont, california'
p8402
asS'puduche'
p8403
(lp8404
S'puducherry'
p8405
asS'long b'
p8406
(lp8407
S'long beach, california'
p8408
asS'houston, te'
p8409
(lp8410
S'houston, texas'
p8411
asS'san juan, pue'
p8412
(lp8413
S'san juan, puerto rico'
p8414
asS'kozhi'
p8415
(lp8416
S'kozhikode'
p8417
asS'colum'
p8418
(lp8419
S'columbus, ohio'
p8420
asS'louisville, kentu'
p8421
(lp8422
S'louisville, kentucky'
p8423
asS'durh'
p8424
(lp8425
S'durham, north carolina'
p8426
asS'durg'
p8427
(lp8428
S'durgapur'
p8429
asS'plano, texa'
p8430
(lp8431
S'plano, texas'
p8432
asS'mys'
p8433
(lp8434
S'mysore'
p8435
asS'buffa'
p8436
(lp8437
S'buffalo, new york'
p8438
asS'ind'
p8439
(lp8440
S'indianapolis, indiana'
p8441
aS'indore'
p8442
asS'denve'
p8443
(lp8444
S'denver, colorado'
p8445
asS'pit'
p8446
(lp8447
S'pittsburgh, pennsylvania'
p8448
asS'new york, new y'
p8449
(lp8450
S'new york, new york'
p8451
asS'tulsa,'
p8452
(lp8453
S'tulsa, oklahoma'
p8454
asS'arra'
p8455
(lp8456
S'arrah'
p8457
asS'nellor'
p8458
(lp8459
S'nellore'
p8460
asS'khamma'
p8461
(lp8462
S'khammam'
p8463
asS'oak'
p8464
(lp8465
S'oakland, california'
p8466
asS'jersey city, new jerse'
p8467
(lp8468
S'jersey city, new jersey'
p8469
asS'bihar shar'
p8470
(lp8471
S'bihar sharif'
p8472
asS'mahesh'
p8473
(lp8474
S'maheshtala'
p8475
asS'laredo, tex'
p8476
(lp8477
S'laredo, texas'
p8478
asS'san bernardino, californi'
p8479
(lp8480
S'san bernardino, california'
p8481
asS'austin, te'
p8482
(lp8483
S'austin, texas'
p8484
asS'pimpri-chi'
p8485
(lp8486
S'pimpri-chinchwad'
p8487
asS'durham, north ca'
p8488
(lp8489
S'durham, north carolina'
p8490
asS'juna'
p8491
(lp8492
S'junagadh'
p8493
asS'henders'
p8494
(lp8495
S'henderson, nevada'
p8496
asS'philadelphi'
p8497
(lp8498
S'philadelphia, pennsylvania'
p8499
asS'fremont, '
p8500
(lp8501
S'fremont, california'
p8502
asS'san francisco, califor'
p8503
(lp8504
S'san francisco, california'
p8505
asS'kirari suleman naga'
p8506
(lp8507
S'kirari suleman nagar'
p8508
asS'gwalio'
p8509
(lp8510
S'gwalior'
p8511
asS'madison, wisco'
p8512
(lp8513
S'madison, wisconsin'
p8514
asS'saint pet'
p8515
(lp8516
S'saint petersburg, florida'
p8517
asS'winston\xe2\x80\x93salem, north ca'
p8518
(lp8519
S'winston\xe2\x80\x93salem, north carolina'
p8520
asS'malegao'
p8521
(lp8522
S'malegaon'
p8523
asS'sat'
p8524
(lp8525
S'satara'
p8526
aS'satna'
p8527
asS'baker'
p8528
(lp8529
S'bakersfield, california'
p8530
asS'agart'
p8531
(lp8532
S'agartala'
p8533
asS'anaheim, '
p8534
(lp8535
S'anaheim, california'
p8536
asS'chula vista, ca'
p8537
(lp8538
S'chula vista, california'
p8539
asS'cleve'
p8540
(lp8541
S'cleveland, ohio'
p8542
asS'pimpri-'
p8543
(lp8544
S'pimpri-chinchwad'
p8545
as.